((lp0
I-1
aI-1
aI-1
aI-1
aI-1
aI-1
aI-1
aI-1
aI-1
aI-1
aI-1
aI-1
aI-1
aI-1
aI-1
aI-1
aI-1
aI-1
aI-1
aI-1
aI-1
aI-1
aI-1
aI-1
aI-1
aI-1
aI-1
aI-1
aI-1
aI-1
aI-1
aI-1
aI-1
aI-1
aI-1
aI-1
aI-1
aI-1
aI-1
aI-1
aI-1
aI-1
aI-1
aI-1
aI-1
aI-1
aI-1
aI-1
aI-1
aI-1
aI-1
aI-1
aI-1
aI-1
aI-1
aI-1
aI-1
aI-1
aI-1
aI-1
aI-1
aI-1
aI-1
aI-1
aI-1
aI-1
aI-1
aI-1
aI-1
aI-1
aI-1
aI-1
aI-1
aI-1
aI-1
aI-1
aI-1
aI-1
aI-1
aI-1
aI-1
aI-1
aI-1
aI-1
aI-1
aI-1
aI-1
aI-1
aI-1
aI-1
aI-1
aI-1
aI-1
aI-1
aI-1
aI-1
aI-1
aI-1
aI-1
aI-1
aI-1
aI-1
aI-1
aI-1
aI-1
aI-1
aI-1
aI-1
aI-1
aI-1
aI-1
aI-1
aI-1
aI-1
aI-1
aI-1
aI-1
aI-1
aI-1
aI-1
aI-1
aI-1
aI-1
aI-1
aI-1
aI-1
aI-1
aI-1
aI-1
aI-1
aI-1
aI-1
aI-1
aI-1
aI-1
aI-1
aI-1
aI-1
aI-1
aI-1
aI-1
aI-1
aI-1
aI-1
aI-1
aI-1
aI-1
aI-1
aI-1
aI-1
aI-1
aI-1
aI-1
aI-1
aI-1
aI-1
aI-1
aI-1
aI-1
aI-1
aI-1
aI-1
aI-1
aI-1
aI-1
aI-1
aI-1
aI-1
aI-1
aI-1
aI-1
aI-1
aI-1
aI-1
aI-1
aI-1
aI-1
aI-1
aI-1
aI-1
aI-1
aI-1
aI-1
aI-1
aI-1
aI-1
aI-1
aI-1
aI-1
aI-1
aI-1
aI-1
aI-1
aI-1
aI-1
aI-1
aI-1
aI-1
aI-1
aI-1
aI-1
aI-1
aI-1
aI-1
aI-1
aI-1
aI-1
aI-1
aI-1
aI-1
aI-1
aI-1
aI-1
aI-1
aI-1
aI-1
aI-1
aI-1
aI-1
aI-1
aI-1
aI-1
aI-1
aI-1
aI-1
aI-1
aI-1
aI-1
aI-1
aI-1
aI-1
aI-1
aI-1
aI-1
aI-1
aI-1
aI-1
aI-1
aI-1
aI-1
aI-1
aI-1
aI-1
aI-1
aI-1
aI-1
aI-1
aI-1
aI-1
aI-1
aI-1
aI-1
aI-1
aI-1
aI-1
aI-1
aI-1
aI-1
aI-1
aI-1
aI-1
aI-1
aI-1
aI-1
aI-1
aI-1
aI-1
aI-1
aI-1
aI-1
aI-1
aI-1
aI-1
aI-1
aI-1
aI-1
aI-1
aI-1
aI-1
aI-1
aI-1
aI-1
aI-1
aI-1
aI-1
aI-1
aI-1
aI-1
aI-1
aI-1
aI-1
aI-1
aI-1
aI-1
aI-1
aI-1
aI-1
aI-1
aI-1
aI-1
aI-1
aI-1
aI-1
aI-1
aI-1
aI-1
aI-1
aI-1
aI-1
aI-1
aI-1
aI-1
aI-1
aI-1
aI-1
aI-1
aI-1
aI-1
aI-1
aI-1
aI-1
aI-1
aI-1
aI-1
aI-1
aI-1
aI-1
aI-1
aI-1
aI-1
aI-1
aI-1
aI-1
aI-1
aI-1
aI-1
aI-1
aI-1
aI-1
aI-1
aI-1
aI-1
aI-1
aI-1
aI-1
aI-1
aI-1
aI-1
aI-1
aI-1
aI-1
aI-1
aI-1
aI-1
aI-1
aI-1
aI-1
aI-1
aI-1
aI-1
aI-1
aI-1
aI-1
aI-1
aI-1
aI-1
aI-1
aI-1
aI-1
aI-1
aI-1
aI-1
aI-1
aI-1
aI-1
aI-1
aI-1
aI-1
aI-1
aI-1
aI-1
aI-1
aI-1
aI-1
aI-1
aI-1
aI-1
aI-1
aI-1
aI-1
aI-1
aI-1
aI-1
aI-1
aI-1
aI-1
aI-1
aI-1
aI-1
aI-1
aI-1
aI-1
aI-1
aI-1
aI-1
aI-1
aI-1
aI-1
aI-1
aI-1
aI-1
aI-1
aI-1
aI-1
aI-1
aI-1
aI-1
aI-1
aI-1
aI-1
aI-1
aI-1
aI-1
aI-1
aI-1
aI-1
aI-1
aI-1
aI-1
aI-1
aI-1
aI-1
aI-1
aI-1
aI-1
aI-1
aI-1
aI-1
aI-1
aI-1
aI-1
aI-1
aI-1
aI-1
aI-1
aI-1
aI-1
aI-1
aI-1
aI-1
aI-1
aI-1
aI-1
aI-1
aI-1
aI-1
aI-1
aI-1
aI-1
aI-1
aI-1
aI-1
aI-1
aI-1
aI-1
aI-1
aI-1
aI-1
aI-1
aI-1
aI-1
aI-1
aI-1
aI-1
aI-1
aI-1
aI-1
aI-1
aI-1
aI-1
aI-1
aI-1
aI-1
aI-1
aI-1
aI-1
aI-1
aI-1
aI-1
aI-1
aI-1
aI-1
aI-1
aI-1
aI-1
aI-1
aI-1
aI-1
aI-1
aI-1
aI-1
aI-1
aI-1
aI-1
aI-1
aI-1
aI-1
aI-1
aI-1
aI-1
aI-1
aI-1
aI-1
aI-1
aI-1
aI-1
aI-1
aI-1
aI-1
aI-1
aI-1
aI-1
aI-1
aI-1
aI-1
aI-1
aI-1
aI-1
aI-1
aI-1
aI-1
aI-1
aI-1
aI-1
aI-1
aI-1
aI-1
aI-1
aI-1
aI-1
aI-1
aI-1
aI-1
aI-1
aI-1
aI-1
aI-1
aI-1
aI-1
aI-1
aI-1
aI-1
aI-1
aI-1
aI-1
aI-1
aI-1
aI-1
aI-1
aI-1
aI-1
aI-1
aI-1
aI-1
aI-1
aI-1
aI-1
aI-1
aI-1
aI-1
aI-1
aI-1
aI-1
aI-1
aI-1
aI-1
aI-1
aI-1
aI-1
aI-1
aI-1
aI-1
aI-1
aI-1
aI-1
aI-1
aI-1
aI-1
aI-1
aI-1
aI-1
aI-1
aI-1
aI-1
aI-1
aI-1
aI-1
aI-1
aI-1
aI-1
aI-1
aI-1
aI-1
aI-1
aI-1
aI-1
aI-1
aI-1
aI-1
aI-1
aI-1
aI-1
aI-1
aI-1
aI-1
aI-1
aI-1
aI-1
aI-1
aI-1
aI-1
aI-1
aI-1
aI-1
aI-1
aI-1
aI-1
aI-1
aI-1
aI-1
aI-1
aI-1
aI-1
aI-1
aI-1
aI-1
aI-1
aI-1
aI-1
aI-1
aI-1
aI-1
aI-1
aI-1
aI-1
aI-1
aI-1
aI-1
aI-1
aI-1
aI-1
aI-1
aI-1
aI-1
aI-1
aI-1
aI-1
aI-1
aI-1
aI-1
aI-1
aI-1
aI-1
aI-1
aI-1
aI-1
aI-1
aI-1
aI-1
aI-1
aI-1
aI-1
aI-1
aI-1
aI-1
aI-1
aI-1
aI-1
aI-1
aI-1
aI-1
aI-1
aI-1
aI-1
aI-1
aI-1
aI-1
aI-1
aI-1
aI-1
aI-1
aI-1
aI-1
aI-1
aI-1
aI-1
aI-1
aI-1
aI-1
aI-1
aI-1
aI-1
aI-1
aI-1
aI-1
aI-1
aI-1
aI-1
aI-1
aI-1
aI-1
aI-1
aI-1
aI-1
aI-1
aI-1
aI-1
aI-1
aI-1
aI-1
aI-1
aI-1
aI-1
aI-1
aI-1
aI-1
aI-1
aI-1
aI-1
aI-1
aI-1
aI-1
aI-1
aI-1
aI-1
aI-1
aI-1
aI-1
aI-1
aI-1
aI-1
aI-1
aI-1
aI-1
aI-1
aI-1
aI-1
aI-1
aI-1
aI-1
aI-1
aI-1
aI-1
aI-1
aI-1
aI-1
aI-1
aI-1
aI-1
aI-1
aI-1
aI-1
aI-1
aI-1
aI-1
aI-1
aI-1
aI-1
aI-1
aI-1
aI-1
aI-1
aI-1
aI-1
aI-1
aI-1
aI-1
aI-1
aI-1
aI-1
aI-1
aI-1
aI-1
aI-1
aI-1
aI-1
aI-1
aI-1
aI-1
aI-1
aI-1
aI-1
aI-1
aI-1
aI-1
aI-1
aI-1
aI-1
aI-1
aI-1
aI-1
aI-1
aI-1
aI-1
aI-1
aI-1
aI-1
aI-1
aI-1
aI-1
aI-1
aI-1
aI-1
aI-1
aI-1
aI-1
aI-1
aI-1
aI-1
aI-1
aI-1
aI-1
aI-1
aI-1
aI-1
aI-1
aI-1
aI-1
aI-1
aI-1
aI-1
aI-1
aI-1
aI-1
aI-1
aI-1
aI-1
aI-1
aI-1
aI-1
aI-1
aI-1
aI-1
aI-1
aI-1
aI-1
aI-1
aI-1
aI-1
aI-1
aI-1
aI-1
aI-1
aI-1
aI-1
aI-1
aI-1
aI-1
aI-1
aI-1
aI-1
aI-1
aI-1
aI-1
aI-1
aI-1
aI-1
aI-1
aI-1
aI-1
aI-1
aI-1
aI-1
aI-1
aI-1
aI-1
aI-1
aI-1
aI-1
aI-1
aI-1
aI-1
aI-1
aI-1
aI-1
aI-1
aI-1
aI-1
aI-1
aI-1
aI-1
aI-1
aI-1
aI-1
aI-1
aI-1
aI-1
aI-1
aI-1
aI-1
aI-1
aI-1
aI-1
aI-1
aI-1
aI-1
aI-1
aI-1
aI-1
aI-1
aI-1
aI-1
aI-1
aI-1
aI-1
aI-1
aI-1
aI-1
aI-1
aI-1
aI-1
aI-1
aI-1
aI-1
aI-1
aI-1
aI-1
aI-1
aI-1
aI-1
aI-1
aI-1
aI-1
aI-1
aI-1
aI-1
aI-1
aI-1
aI-1
aI-1
aI-1
aI-1
aI-1
aI-1
aI-1
aI-1
aI-1
aI-1
aI-1
aI-1
aI-1
aI-1
aI-1
aI-1
aI-1
aI-1
aI-1
aI-1
aI-1
aI-1
aI-1
aI-1
aI-1
aI-1
aI-1
aI-1
aI-1
aI-1
aI-1
aI-1
aI-1
aI-1
aI-1
aI-1
aI-1
aI-1
aI-1
aI-1
aI-1
aI-1
aI-1
aI-1
aI-1
aI-1
aI-1
aI-1
aI-1
aI-1
aI-1
aI-1
aI-1
aI-1
aI-1
aI-1
aI-1
aI-1
aI-1
aI-1
aI-1
aI-1
aI-1
aI-1
aI-1
aI-1
aI-1
aI-1
aI-1
aI-1
aI-1
aI-1
aI-1
aI-1
aI-1
aI-1
aI-1
aI-1
aI-1
aI-1
aI-1
aI-1
aI-1
aI-1
aI-1
aI-1
aI-1
aI-1
aI-1
aI-1
aI-1
aI-1
aI-1
aI-1
aI-1
aI-1
aI-1
aI-1
aI-1
aI-1
aI-1
aI-1
aI-1
aI-1
aI-1
aI-1
aI-1
aI-1
aI-1
aI-1
aI-1
aI-1
aI-1
aI-1
aI-1
aI-1
aI-1
aI-1
aI-1
aI-1
aI-1
aI-1
aI-1
aI-1
aI-1
aI-1
aI-1
aI-1
aI-1
aI-1
aI-1
aI-1
aI-1
aI-1
aI-1
aI-1
aI-1
aI-1
aI-1
aI-1
aI-1
aI-1
aI-1
aI-1
aI-1
aI-1
aI-1
aI-1
aI-1
aI-1
aI-1
aI-1
aI-1
aI-1
aI-1
aI-1
aI-1
aI-1
aI-1
aI-1
aI-1
aI-1
aI-1
aI-1
aI-1
aI-1
aI-1
aI-1
aI-1
aI-1
aI-1
aI-1
aI-1
aI-1
aI-1
aI-1
aI-1
aI-1
aI-1
aI-1
aI-1
aI-1
aI-1
aI-1
aI-1
aI-1
aI-1
aI-1
aI-1
aI-1
aI-1
aI-1
aI-1
aI-1
aI-1
aI-1
aI-1
aI-1
aI-1
aI-1
aI-1
aI-1
aI-1
aI-1
aI-1
aI-1
aI-1
aI-1
aI-1
aI-1
aI-1
aI-1
aI-1
aI-1
aI-1
aI-1
aI-1
aI-1
aI-1
aI-1
aI-1
aI-1
aI-1
aI-1
aI-1
aI-1
aI-1
aI-1
aI-1
aI-1
aI-1
aI-1
aI-1
aI-1
aI-1
aI-1
aI-1
aI-1
aI-1
aI-1
aI-1
aI-1
aI-1
aI-1
aI-1
aI-1
aI-1
aI-1
aI-1
aI-1
aI-1
aI-1
aI-1
aI-1
aI-1
aI-1
aI-1
aI-1
aI-1
aI-1
aI-1
aI-1
aI-1
aI-1
aI-1
aI-1
aI-1
aI-1
aI-1
aI-1
aI-1
aI-1
aI-1
aI-1
aI-1
aI-1
aI-1
aI-1
aI-1
aI-1
aI-1
aI-1
aI-1
aI-1
aI-1
aI-1
aI-1
aI-1
aI-1
aI-1
aI-1
aI-1
aI-1
aI-1
aI-1
aI-1
aI-1
aI-1
aI-1
aI-1
aI-1
aI-1
aI-1
aI-1
aI-1
aI-1
aI-1
aI-1
aI-1
aI-1
aI-1
aI-1
aI-1
aI-1
aI-1
aI-1
aI-1
aI-1
aI-1
aI-1
aI-1
aI-1
aI-1
aI-1
aI-1
aI-1
aI-1
aI-1
aI-1
aI-1
aI-1
aI-1
aI-1
aI-1
aI-1
aI-1
aI-1
aI-1
aI-1
aI-1
aI-1
aI-1
aI-1
aI-1
aI-1
aI-1
aI-1
aI-1
aI-1
aI-1
aI-1
aI-1
aI-1
aI-1
aI-1
aI-1
aI-1
aI-1
aI-1
aI-1
aI-1
aI-1
aI-1
aI-1
aI-1
aI-1
aI-1
aI-1
aI-1
aI-1
aI-1
aI-1
aI-1
aI-1
aI-1
aI-1
aI-1
aI-1
aI-1
aI-1
aI-1
aI-1
aI-1
aI-1
aI-1
aI-1
aI-1
aI-1
aI-1
aI-1
aI-1
aI-1
aI-1
aI-1
aI-1
aI-1
aI-1
aI-1
aI-1
aI-1
aI-1
aI-1
aI-1
aI-1
aI-1
aI-1
aI-1
aI-1
aI-1
aI-1
aI-1
aI-1
aI-1
aI-1
aI-1
aI-1
aI-1
aI-1
aI-1
aI-1
aI-1
aI-1
aI-1
aI-1
aI-1
aI-1
aI-1
aI-1
aI-1
aI-1
aI-1
aI-1
aI-1
aI-1
aI-1
aI-1
aI-1
aI-1
aI-1
aI-1
aI-1
aI-1
aI-1
aI-1
aI-1
aI-1
aI-1
aI-1
aI-1
aI-1
aI-1
aI-1
aI-1
aI-1
aI-1
aI-1
aI-1
aI-1
aI-1
aI-1
aI-1
aI-1
aI-1
aI-1
aI-1
aI-1
aI-1
aI-1
aI-1
aI-1
aI-1
aI-1
aI-1
aI-1
aI-1
aI-1
aI-1
aI-1
aI-1
aI-1
aI-1
aI-1
aI-1
aI-1
aI-1
aI-1
aI-1
aI-1
aI-1
aI-1
aI-1
aI-1
aI-1
aI-1
aI-1
aI-1
aI-1
aI-1
aI-1
aI-1
aI-1
aI-1
aI-1
aI-1
aI-1
aI-1
aI-1
aI-1
aI-1
aI-1
aI-1
aI-1
aI-1
aI-1
aI-1
aI-1
aI-1
aI-1
aI-1
aI-1
aI-1
aI-1
aI-1
aI-1
aI-1
aI-1
aI-1
aI-1
aI-1
aI-1
aI-1
aI-1
aI-1
aI-1
aI-1
aI-1
aI-1
aI-1
aI-1
aI-1
aI-1
aI-1
aI-1
aI-1
aI-1
aI-1
aI-1
aI-1
aI-1
aI-1
aI1
aI1
aI1
aI1
aI1
aI1
aI1
aI1
aI1
aI1
aI1
aI1
aI1
aI1
aI1
aI1
aI1
aI1
aI1
aI1
aI1
aI1
aI1
aI1
aI1
aI1
aI1
aI1
aI1
aI1
aI1
aI1
aI1
aI1
aI1
aI1
aI1
aI1
aI1
aI1
aI1
aI1
aI1
aI1
aI1
aI1
aI1
aI1
aI1
aI1
aI1
aI1
aI1
aI1
aI1
aI1
aI1
aI1
aI1
aI1
aI1
aI1
aI1
aI1
aI1
aI1
aI1
aI1
aI1
aI1
aI1
aI1
aI1
aI1
aI1
aI1
aI1
aI1
aI1
aI1
aI1
aI1
aI1
aI1
aI1
aI1
aI1
aI1
aI1
aI1
aI1
aI1
aI1
aI1
aI1
aI1
aI1
aI1
aI1
aI1
aI1
aI1
aI1
aI1
aI1
aI1
aI1
aI1
aI1
aI1
aI1
aI1
aI1
aI1
aI1
aI1
aI1
aI1
aI1
aI1
aI1
aI1
aI1
aI1
aI1
aI1
aI1
aI1
aI1
aI1
aI1
aI1
aI1
aI1
aI1
aI1
aI1
aI1
aI1
aI1
aI1
aI1
aI1
aI1
aI1
aI1
aI1
aI1
aI1
aI1
aI1
aI1
aI1
aI1
aI1
aI1
aI1
aI1
aI1
aI1
aI1
aI1
aI1
aI1
aI1
aI1
aI1
aI1
aI1
aI1
aI1
aI1
aI1
aI1
aI1
aI1
aI1
aI1
aI1
aI1
aI1
aI1
aI1
aI1
aI1
aI1
aI1
aI1
aI1
aI1
aI1
aI1
aI1
aI1
aI1
aI1
aI1
aI1
aI1
aI1
aI1
aI1
aI1
aI1
aI1
aI1
aI1
aI1
aI1
aI1
aI1
aI1
aI1
aI1
aI1
aI1
aI1
aI1
aI1
aI1
aI1
aI1
aI1
aI1
aI1
aI1
aI1
aI1
aI1
aI1
aI1
aI1
aI1
aI1
aI1
aI1
aI1
aI1
aI1
aI1
aI1
aI1
aI1
aI1
aI1
aI1
aI1
aI1
aI1
aI1
aI1
aI1
aI1
aI1
aI1
aI1
aI1
aI1
aI1
aI1
aI1
aI1
aI1
aI1
aI1
aI1
aI1
aI1
aI1
aI1
aI1
aI1
aI1
aI1
aI1
aI1
aI1
aI1
aI1
aI1
aI1
aI1
aI1
aI1
aI1
aI1
aI1
aI1
aI1
aI1
aI1
aI1
aI1
aI1
aI1
aI1
aI1
aI1
aI1
aI1
aI1
aI1
aI1
aI1
aI1
aI1
aI1
aI1
aI1
aI1
aI1
aI1
aI1
aI1
aI1
aI1
aI1
aI1
aI1
aI1
aI1
aI1
aI1
aI1
aI1
aI1
aI1
aI1
aI1
aI1
aI1
aI1
aI1
aI1
aI1
aI1
aI1
aI1
aI1
aI1
aI1
aI1
aI1
aI1
aI1
aI1
aI1
aI1
aI1
aI1
aI1
aI1
aI1
aI1
aI1
aI1
aI1
aI1
aI1
aI1
aI1
aI1
aI1
aI1
aI1
aI1
aI1
aI1
aI1
aI1
aI1
aI1
aI1
aI1
aI1
aI1
aI1
aI1
aI1
aI1
aI1
aI1
aI1
aI1
aI1
aI1
aI1
aI1
aI1
aI1
aI1
aI1
aI1
aI1
aI1
aI1
aI1
aI1
aI1
aI1
aI1
aI1
aI1
aI1
aI1
aI1
aI1
aI1
aI1
aI1
aI1
aI1
aI1
aI1
aI1
aI1
aI1
aI1
aI1
aI1
aI1
aI1
aI1
aI1
aI1
aI1
aI1
aI1
aI1
aI1
aI1
aI1
aI1
aI1
aI1
aI1
aI1
aI1
aI1
aI1
aI1
aI1
aI1
aI1
aI1
aI1
aI1
aI1
aI1
aI1
aI1
aI1
aI1
aI1
aI1
aI1
aI1
aI1
aI1
aI1
aI1
aI1
aI1
aI1
aI1
aI1
aI1
aI1
aI1
aI1
aI1
aI1
aI1
aI1
aI1
aI1
aI1
aI1
aI1
aI1
aI1
aI1
aI1
aI1
aI1
aI1
aI1
aI1
aI1
aI1
aI1
aI1
aI1
aI1
aI1
aI1
aI1
aI1
aI1
aI1
aI1
aI1
aI1
aI1
aI1
aI1
aI1
aI1
aI1
aI1
aI1
aI1
aI1
aI1
aI1
aI1
aI1
aI1
aI1
aI1
aI1
aI1
aI1
aI1
aI1
aI1
aI1
aI1
aI1
aI1
aI1
aI1
aI1
aI1
aI1
aI1
aI1
aI1
aI1
aI1
aI1
aI1
aI1
aI1
aI1
aI1
aI1
aI1
aI1
aI1
aI1
aI1
aI1
aI1
aI1
aI1
aI1
aI1
aI1
aI1
aI1
aI1
aI1
aI1
aI1
aI1
aI1
aI1
aI1
aI1
aI1
aI1
aI1
aI1
aI1
aI1
aI1
aI1
aI1
aI1
aI1
aI1
aI1
aI1
aI1
aI1
aI1
aI1
aI1
aI1
aI1
aI1
aI1
aI1
aI1
aI1
aI1
aI1
aI1
aI1
aI1
aI1
aI1
aI1
aI1
aI1
aI1
aI1
aI1
aI1
aI1
aI1
aI1
aI1
aI1
aI1
aI1
aI1
aI1
aI1
aI1
aI1
aI1
aI1
aI1
aI1
aI1
aI1
aI1
aI1
aI1
aI1
aI1
aI1
aI1
aI1
aI1
aI1
aI1
aI1
aI1
aI1
aI1
aI1
aI1
aI1
aI1
aI1
aI1
aI1
aI1
aI1
aI1
aI1
aI1
aI1
aI1
aI1
aI1
aI1
aI1
aI1
aI1
aI1
aI1
aI1
aI1
aI1
aI1
aI1
aI1
aI1
aI1
aI1
aI1
aI1
aI1
aI1
aI1
aI1
aI1
aI1
aI1
aI1
aI1
aI1
aI1
aI1
aI1
aI1
aI1
aI1
aI1
aI1
aI1
aI1
aI1
aI1
aI1
aI1
aI1
aI1
aI1
aI1
aI1
aI1
aI1
aI1
aI1
aI1
aI1
aI1
aI1
aI1
aI1
aI1
aI1
aI1
aI1
aI1
aI1
aI1
aI1
aI1
aI1
aI1
aI1
aI1
aI1
aI1
aI1
aI1
aI1
aI1
aI1
aI1
aI1
aI1
aI1
aI1
aI1
aI1
aI1
aI1
aI1
aI1
aI1
aI1
aI1
aI1
aI1
aI1
aI1
aI1
aI1
aI1
aI1
aI1
aI1
aI1
aI1
aI1
aI1
aI1
aI1
aI1
aI1
aI1
aI1
aI1
aI1
aI1
aI1
aI1
aI1
aI1
aI1
aI1
aI1
aI1
aI1
aI1
aI1
aI1
aI1
aI1
aI1
aI1
aI1
aI1
aI1
aI1
aI1
aI1
aI1
aI1
aI1
aI1
aI1
aI1
aI1
aI1
aI1
aI1
aI1
aI1
aI1
aI1
aI1
aI1
aI1
aI1
aI1
aI1
aI1
aI1
aI1
aI1
aI1
aI1
aI1
aI1
aI1
aI1
aI1
aI1
aI1
aI1
aI1
aI1
aI1
aI1
aI1
aI1
aI1
aI1
aI1
aI1
aI1
aI1
aI1
aI1
aI1
aI1
aI1
aI1
aI1
aI1
aI1
aI1
aI1
aI1
aI1
aI1
aI1
aI1
aI1
aI1
aI1
aI1
aI1
aI1
aI1
aI1
aI1
aI1
aI1
aI1
aI1
aI1
aI1
aI1
aI1
aI1
aI1
aI1
aI1
aI1
aI1
aI1
aI1
aI1
aI1
aI1
aI1
aI1
aI1
aI1
aI1
aI1
aI1
aI1
aI1
aI1
aI1
aI1
aI1
aI1
aI1
aI1
aI1
aI1
aI1
aI1
aI1
aI1
aI1
aI1
aI1
aI1
aI1
aI1
aI1
aI1
aI1
aI1
aI1
aI1
aI1
aI1
aI1
aI1
aI1
aI1
aI1
aI1
aI1
aI1
aI1
aI1
aI1
aI1
aI1
aI1
aI1
aI1
aI1
aI1
aI1
aI1
aI1
aI1
aI1
aI1
aI1
aI1
aI1
aI1
aI1
aI1
aI1
aI1
aI1
aI1
aI1
aI1
aI1
aI1
aI1
aI1
aI1
aI1
aI1
aI1
aI1
aI1
aI1
aI1
aI1
aI1
aI1
aI1
aI1
aI1
aI1
aI1
aI1
aI1
aI1
aI1
aI1
aI1
aI1
aI1
aI1
aI1
aI1
aI1
aI1
aI1
aI1
aI1
aI1
aI1
aI1
aI1
aI1
aI1
aI1
aI1
aI1
aI1
aI1
aI1
aI1
aI1
aI1
aI1
aI1
aI1
aI1
aI1
aI1
aI1
aI1
aI1
aI1
aI1
aI1
aI1
aI1
aI1
aI1
aI1
aI1
aI1
aI1
aI1
aI1
aI1
aI1
aI1
aI1
aI1
aI1
aI1
aI1
aI1
aI1
aI1
aI1
aI1
aI1
aI1
aI1
aI1
aI1
aI1
aI1
aI1
aI1
aI1
aI1
aI1
aI1
aI1
aI1
aI1
aI1
aI1
aI1
aI1
aI1
aI1
aI1
aI1
aI1
aI1
aI1
aI1
aI1
aI1
aI1
aI1
aI1
aI1
aI1
aI1
aI1
aI1
aI1
aI1
aI1
aI1
aI1
aI1
aI1
aI1
aI1
aI1
aI1
aI1
aI1
aI1
aI1
aI1
aI1
aI1
aI1
aI1
aI1
aI1
aI1
aI1
aI1
aI1
aI1
aI1
aI1
aI1
aI1
aI1
aI1
aI1
aI1
aI1
aI1
aI1
aI1
aI1
aI1
aI1
aI1
aI1
aI1
aI1
aI1
aI1
aI1
aI1
aI1
aI1
aI1
aI1
aI1
aI1
aI1
aI1
aI1
aI1
aI1
aI1
aI1
aI1
aI1
aI1
aI1
aI1
aI1
aI1
aI1
aI1
aI1
aI1
aI1
aI1
aI1
aI1
aI1
aI1
aI1
aI1
aI1
aI1
aI1
aI1
aI1
aI1
aI1
aI1
aI1
aI1
aI1
aI1
aI1
aI1
aI1
aI1
aI1
aI1
aI1
aI1
aI1
aI1
aI1
aI1
aI1
aI1
aI1
aI1
aI1
aI1
aI1
aI1
aI1
aI1
aI1
aI1
aI1
aI1
aI1
aI1
aI1
aI1
aI1
aI1
aI1
aI1
aI1
aI1
aI1
aI1
aI1
aI1
aI1
aI1
aI1
aI1
aI1
aI1
aI1
aI1
aI1
aI1
aI1
aI1
aI1
aI1
aI1
aI1
aI1
aI1
aI1
aI1
aI1
aI1
aI1
aI1
aI1
aI1
aI1
aI1
aI1
aI1
aI1
aI1
aI1
aI1
aI1
aI1
aI1
aI1
aI1
aI1
aI1
aI1
aI1
aI1
aI1
aI1
aI1
aI1
aI1
aI1
aI1
aI1
aI1
aI1
aI1
aI1
aI1
aI1
aI1
aI1
aI1
aI1
aI1
aI1
aI1
aI1
aI1
aI1
aI1
aI1
aI1
aI1
aI1
aI1
aI1
aI1
aI1
aI1
aI1
aI1
aI1
aI1
aI1
aI1
aI1
aI1
aI1
aI1
aI1
aI1
aI1
aI1
aI1
aI1
aI1
aI1
aI1
aI1
aI1
aI1
aI1
aI1
aI1
aI1
aI1
aI1
aI1
aI1
aI1
aI1
aI1
aI1
aI1
aI1
aI1
aI1
aI1
aI1
aI1
aI1
aI1
aI1
aI1
aI1
aI1
aI1
aI1
aI1
aI1
aI1
aI1
aI1
aI1
aI1
aI1
aI1
aI1
aI1
aI1
aI1
aI1
aI1
aI1
aI1
aI1
aI1
aI1
aI1
aI1
aI1
aI1
aI1
aI1
aI1
aI1
aI1
aI1
aI1
aI1
aI1
aI1
aI1
aI1
aI1
aI1
aI1
aI1
aI1
aI1
aI1
aI1
aI1
aI1
aI1
aI1
aI1
aI1
aI1
aI1
aI1
aI1
aI1
aI1
aI1
aI1
aI1
aI1
aI1
aI1
aI1
aI1
aI1
aI1
aI1
aI1
aI1
aI1
aI1
aI1
aI1
aI1
aI1
aI1
aI1
aI1
aI1
aI1
aI1
aI1
aI1
aI1
aI1
aI1
aI1
aI1
aI1
aI1
aI1
aI1
aI1
aI1
aI1
aI1
aI1
aI1
aI1
aI1
aI1
aI1
aI1
aI1
aI1
aI1
aI1
aI1
aI1
aI1
aI1
aI1
aI1
aI1
aI1
aI1
aI1
aI1
aI1
aI1
aI1
aI1
aI1
aI1
aI1
aI1
aI1
aI1
aI1
aI1
aI1
aI1
aI1
aI1
aI1
aI1
aI1
aI1
aI1
aI1
aI1
aI1
aI1
aI1
aI1
aI1
aI1
aI1
aI1
aI1
aI1
aI1
aI1
aI1
aI1
aI1
aI1
aI1
aI1
aI1
aI1
aI1
aI1
aI1
aI1
aI1
aI1
aI1
aI1
aI1
aI1
aI1
aI1
aI1
aI1
aI1
aI1
aI1
aI1
aI1
aI1
aI1
aI1
aI1
aI1
aI1
aI1
aI1
aI1
aI1
aI1
aI1
aI1
aI1
aI1
aI1
aI1
aI1
aI1
a(lp1
F900.0929394635115
aF860.1012609050122
aF690.2410194306495
aF974.5034333638442
aF952.9151129369678
aF893.919113195378
aF611.5082133402855
aF785.6674412650648
aF874.6613034234324
aF920.9984531856232
aF511.4004233965152
aF1392.1171956625824
aF921.0471810482231
aF644.2775341393052
aF814.2292160615044
aF542.1620251983743
aF888.2401498475425
aF429.4297576079772
aF1111.085669337432
aF782.2839042932812
aF953.0547669182212
aF904.7035324210871
aF944.4405029899738
aF565.7383084978673
aF995.4544000032859
aF837.5440222464536
aF904.4485437803824
aF1104.1561647149297
aF970.0111291145741
aF876.0175746843015
aF926.024658235664
aF913.967503871323
aF998.3209592188103
aF1089.1078525002126
aF885.2435406554828
aF711.8654004621058
aF577.2944499862774
aF867.2367543995066
aF894.6368885452913
aF902.6399854954448
aF831.0482092120892
aF968.9831567601141
aF1032.0425143610366
aF761.1771581816553
aF976.7136229311284
aF824.1225382740431
aF1002.3217010161334
aF829.7382553112178
aF944.3818133575382
aF904.0591791734503
aF879.3635491278355
aF827.8476281768958
aF910.6059875883751
aF889.7756389481339
aF900.8408212315596
aF1188.1959152958814
aF874.4857195390143
aF790.8521003566509
aF1965.6687047040928
aF811.2215342958223
aF911.6443768502578
aF687.3611538779314
aF850.8319281918225
aF1039.5587556078626
aF1165.579414385514
aF1106.784684500451
aF470.00074082265536
aF907.1959375593282
aF992.390616362055
aF869.5183082395475
aF890.1215209078063
aF855.5040172379039
aF905.0012063103378
aF870.5069160883214
aF856.4313926542852
aF1018.080171072256
aF978.4845745685218
aF907.0770260271388
aF848.1366838655886
aF776.9775313325478
aF550.4028952278759
aF891.4392051566284
aF853.8563532925901
aF383.97326417095206
aF919.2654937729062
aF928.4438152579469
aF1058.533933794953
aF739.884875098465
aF837.8850294059567
aF860.5459969077452
aF954.1247962067207
aF1297.4725262765555
aF999.9999999254942
aF794.4322650860637
aF919.0143521048799
aF903.5455584933254
aF831.8568257876663
aF822.8715501132887
aF692.2330863334408
aF847.9288265135123
aF878.9483720056674
aF523.5271594682735
aF886.0379070866709
aF1000.2617459336708
aF872.6063662253092
aF815.7526624556444
aF829.0271779064058
aF861.1231410658575
aF890.7889443362973
aF813.866136289166
aF425.1678271373432
aF832.2463999113152
aF861.4850275778045
aF885.8994398415565
aF976.6810696132115
aF996.9994314155746
aF779.0648752634614
aF1088.628136730005
aF921.1962345363582
aF746.7511555522345
aF932.0349160655687
aF457.821376824901
aF970.9201952752958
aF935.7355375032105
aF535.9987066851721
aF813.9393137202636
aF933.5822408657564
aF999.0896256845397
aF450.52652350256545
aF501.97314749363636
aF647.9035062825164
aF621.0292399027302
aF887.1658348563137
aF393.46602398141414
aF364.55603922613574
aF917.6164584690794
aF871.7290742288505
aF738.2988074307689
aF825.8952733687966
aF867.673105171048
aF511.7370826005732
aF1163.5098810966683
aF959.2710689805815
aF898.2039205675775
aF730.9946097556325
aF865.0845557358922
aF806.0343527243391
aF937.9626056264431
aF838.3380034696136
aF875.9477211927272
aF918.4871192074494
aF1087.7835590095924
aF1044.2966990424939
aF801.2721303422123
aF915.3990219640817
aF873.2681600395921
aF1238.472136433004
aF765.1285818404539
aF915.5163920199537
aF818.8414471546936
aF918.9386506919816
aF425.08736303823366
aF773.9242368038049
aF907.6046690338806
aF828.3843316065423
aF813.7150042868324
aF870.4484594828336
aF959.3246230402544
aF999.3301952525769
aF940.0777288331307
aF787.2943342739064
aF843.0167109955776
aF584.6039370061648
aF643.7057987419281
aF908.7973272534622
aF963.7024602418137
aF903.9238732336684
aF884.4124541463998
aF1143.809356176686
aF891.8071635999711
aF901.7593334929657
aF866.8239629738941
aF458.9469085436906
aF899.5169293729542
aF884.754227272808
aF789.8052065642449
aF866.3790427403935
aF732.1707340829225
aF1065.1307995904797
aF948.7037056452633
aF996.2970902582748
aF846.5737150913804
aF906.6488141115196
aF875.7901562023405
aF967.5054122233723
aF1076.4265341105374
aF999.8478006031597
aF934.2103845285848
aF881.507210732544
aF481.7732639438296
aF902.3341315805691
aF1068.370205482997
aF931.8808566582537
aF800.5220139430958
aF1057.5948538831676
aF926.1278684663544
aF777.1372193543756
aF884.8970768921658
aF622.9354982589215
aF940.8569325122351
aF915.9353152182538
aF1526.6234810148703
aF877.3959129110076
aF911.8211812964984
aF1266.2767491539353
aF893.8592556275938
aF1000.422909190259
aF988.3293383364976
aF895.213467928928
aF855.2915792240592
aF768.2642207444144
aF1116.5769317354768
aF858.9495349087919
aF819.4337710731588
aF844.1788431572273
aF1124.1720033335164
aF943.0894900137403
aF767.0253315617076
aF908.7927154760135
aF856.3798176664066
aF974.9387858795782
aF959.9129757755856
aF925.8382889960073
aF418.34245328172466
aF733.2260764072365
aF991.0471937182273
aF680.94227943301
aF753.8594304190913
aF772.8879079428912
aF920.0442815187431
aF956.0779597273735
aF849.0552306520236
aF998.6808877245476
aF826.8114310883449
aF936.5713825473968
aF996.9660140853371
aF412.55152009925655
aF1006.948194195223
aF869.345951425545
aF432.74782014840906
aF971.3242983834364
aF913.6390944362967
aF936.6006512908519
aF426.4808065572447
aF813.2178698712787
aF1833.9812676424958
aF573.8598324886648
aF876.4403613431836
aF930.8102327817099
aF913.9633229283592
aF1010.4015857195658
aF889.0221918362522
aF448.99071609489675
aF837.1752982076358
aF948.2855757197636
aF873.5288328343586
aF879.4780797388313
aF947.6201358124276
aF730.7795174653871
aF907.6366479425359
aF956.9192311967197
aF780.2939746276857
aF1025.4728914426519
aF819.4030750184755
aF870.1102493746085
aF970.8052261230604
aF859.6546208683257
aF940.9597412272516
aF1153.3197509291863
aF970.4930250940408
aF898.5552290486644
aF476.91751410296047
aF961.940278220479
aF1006.872992704749
aF800.378672294613
aF912.4691147298736
aF841.4545240346945
aF980.5925236437947
aF1179.621115522548
aF919.5531948335472
aF339.39144405239733
aF874.3058560592256
aF939.4085592401685
aF899.2917036632495
aF987.3804472216693
aF993.6808262887646
aF916.3436247009051
aF869.5001174427011
aF1018.2614719308023
aF886.5335873660964
aF910.3902783865601
aF974.5853521473814
aF866.3533696340744
aF904.2399822046062
aF636.5142611368514
aF912.2708495021611
aF828.8199524178364
aF872.1879420339349
aF866.2889043589672
aF820.2591982524198
aF675.1448608673701
aF911.002810451972
aF706.0185918040592
aF799.5846811654606
aF549.2869268096852
aF825.7441593734725
aF1147.1225408978776
aF745.4474880912861
aF751.3762068637598
aF668.2318562844322
aF920.2800684265
aF999.9999999254942
aF829.8236128427721
aF963.2203526010734
aF881.4125279448633
aF1076.6837302574775
aF985.9805789300709
aF905.5678081476334
aF821.1826258336491
aF613.5991710021559
aF968.2445470728659
aF856.2484878799582
aF905.5615823534592
aF1044.7951423385048
aF777.8960416163579
aF956.0116885848942
aF884.6435178883446
aF884.1894152544885
aF866.4653347490507
aF953.2418811708178
aF960.6074440600406
aF600.8568442202567
aF947.2604730096908
aF1020.4162870131105
aF984.4562594629762
aF1193.3524729275741
aF991.8973721543986
aF990.4547044965799
aF960.8516609531057
aF783.137318932874
aF943.1976204805632
aF996.9057784778004
aF809.7220414546885
aF834.6658001232121
aF848.3291711873103
aF1301.4913424323083
aF842.7591253956724
aF999.9999999254942
aF1029.1873820184956
aF758.8139783128124
aF1124.4233846730779
aF878.6831136973831
aF791.6467781634453
aF1121.8760564573827
aF930.3745705769348
aF832.1949531082496
aF680.0078078512388
aF830.941744236454
aF926.951006932039
aF1748.952679493137
aF566.0890954085055
aF1115.102891965234
aF498.8063443340855
aF1108.6831434467342
aF796.2232839356564
aF828.8199524178364
aF900.1458593586093
aF956.4876627004204
aF858.880060510714
aF729.1650423874705
aF1495.6582345229824
aF864.4373070140634
aF773.2885680302161
aF812.6720985716365
aF909.2229026721938
aF947.0942478721531
aF903.3487029875113
aF1023.5499754670061
aF770.8792094381524
aF826.2444267300989
aF873.5455583888617
aF967.7943949585205
aF932.210106433612
aF822.3833263561305
aF952.9570022392124
aF818.4898526835408
aF930.5573240037148
aF835.3246429364739
aF841.4697209265744
aF1099.3591670169635
aF819.6309925928857
aF886.3129678886032
aF848.9920568080988
aF875.7587708444994
aF834.4844501497581
aF727.8298170171304
aF1321.2418150347753
aF972.42775342234
aF800.5234747750872
aF541.0906550653558
aF543.3813743532132
aF773.0043717661811
aF478.65675332181036
aF1722.3496363606614
aF924.2292403890489
aF804.3954686997421
aF1011.6954780800884
aF889.0142961650744
aF805.7575431553569
aF817.6959119313888
aF624.2778226330337
aF871.5918824477112
aF1130.9319973450474
aF804.8212350329018
aF861.3118750025632
aF1111.020259122915
aF858.212621701051
aF841.012143156808
aF885.9118404699335
aF929.2589641345378
aF1057.2682454943526
aF827.2681450405396
aF794.9918602476578
aF748.9062687858814
aF842.812069581783
aF1079.5396979111533
aF786.2044602950483
aF714.4277895472346
aF892.710291804983
aF904.030687189933
aF959.4512450715931
aF1056.7177335928595
aF865.278670721657
aF669.1525625394679
aF909.4175258601133
aF942.1170215133266
aF958.0181404093928
aF945.2837513566207
aF401.9146427050807
aF790.2359967267436
aF924.7366761197773
aF911.3890356161387
aF874.1708551574362
aF905.9458423496447
aF1021.2678389427632
aF798.562684711438
aF790.0903639678694
aF1000.9724706808843
aF829.4520316847368
aF898.4400749544762
aF841.6660739688825
aF915.496999431764
aF670.8653635793193
aF957.2010532083955
aF915.4258318677497
aF1000.9690894581062
aF815.623537141912
aF934.650902365257
aF1287.482085909111
aF1000.2759241806036
aF766.8287712019085
aF738.139465954126
aF1076.619821242241
aF853.0505841510393
aF887.7963301827058
aF890.6238904293826
aF775.6781594493216
aF920.9603044717597
aF1235.955213629024
aF890.3462583455713
aF916.7589647489245
aF769.3508778096923
aF939.7871351306492
aF439.0669161071407
aF607.5671932024861
aF934.6732286798065
aF609.7512936492436
aF794.8101268842892
aF569.1106104541639
aF960.0592994265032
aF442.4314090643058
aF904.3480057600657
aF689.7334331087696
aF1370.7795898085756
aF761.8750664797726
aF1004.0123281643587
aF942.3451994798726
aF870.390946635914
aF434.6137124909843
aF920.2235041178478
aF864.9249605720044
aF858.6489525724362
aF981.3663884364705
aF933.0850412485405
aF931.8927113495615
aF920.150095966271
aF813.2399970621327
aF948.9945526641862
aF965.8511608319183
aF847.0282144029542
aF993.1553077289583
aF839.7419335435853
aF802.1475912194503
aF741.2053540449498
aF793.6614637466585
aF999.9999999254942
aF686.8083050813611
aF904.2293320340849
aF961.7263794463539
aF941.0524525054243
aF814.0210689539277
aF684.8495066624736
aF702.8064033267157
aF861.6347701604504
aF993.7951920197677
aF891.3066929074381
aF917.4509690896783
aF618.5715432456694
aF851.4860961302143
aF879.850602389771
aF993.4373156504302
aF856.4124078234642
aF782.2343675174106
aF842.544785515688
aF809.0130027719605
aF784.8587911666616
aF894.550135108216
aF732.1707340829225
aF906.9518083296397
aF986.4735311747531
aF1183.0308787277795
aF833.1762490775236
aF743.8681749173118
aF845.513990255373
aF969.7732003043039
aF749.4554469742709
aF875.3280558762665
aF856.5470313302765
aF882.06964227053
aF936.0164964103463
aF891.2653639739924
aF1201.2714010283528
aF936.6351940803813
aF1067.9947905224262
aF1176.598339280767
aF810.6449151514169
aF908.0261251228076
aF830.5675215205258
aF982.2758246517616
aF797.0580619659164
aF932.8731584660491
aF858.307768354991
aF885.9084129634339
aF830.2108173078324
aF910.0130681027223
aF992.564049661315
aF772.2645287780501
aF691.4454789496357
aF952.9484205793049
aF807.9622091226422
aF853.5907050902572
aF894.5405848578753
aF795.007510297591
aF950.5119724705135
aF895.0096570273984
aF890.9268358711668
aF309.25975401970544
aF491.3996962316732
aF940.4156443030218
aF857.0850118171174
aF401.28676948149683
aF838.3130906096177
aF964.3662627494323
aF649.7489809777867
aF1120.8792823857755
aF876.9190424476367
aF879.3814062290692
aF909.1987614853014
aF858.0501671590641
aF894.6795050340096
aF927.4805352464384
aF408.8078916553186
aF962.4297371696031
aF939.1250367600231
aF881.3776256946899
aF919.7387277610762
aF972.3782732073853
aF669.6558396819889
aF873.4848799009802
aF823.109195758482
aF692.6567076778814
aF845.0643497462747
aF850.8344291138476
aF528.9609518137889
aF894.0247900457538
aF617.3818653048106
aF881.1590839818678
aF814.7980426637691
aF889.041577596957
aF842.4395119320048
aF879.1761477878414
aF879.0212262907528
aF924.891078503331
aF834.7821771095355
aF1031.7003963015711
aF416.4586044092439
aF949.0803501897876
aF730.4273828902143
aF560.2104794283291
aF953.3805697854294
aF812.2843035411162
aF999.9999999254942
aF985.5145866056586
aF686.2523473764971
aF698.2378907795929
aF900.3351394194839
aF932.8697688409073
aF890.9870075191943
aF978.062583365926
aF988.2944174915025
aF1124.4552598860357
aF775.0582352161186
aF999.6009777302826
aF895.3086636995038
aF869.6521507813337
aF733.8643748107735
aF1008.9356024315302
aF978.3456349610045
aF897.2481995958267
aF895.4891951457444
aF919.0849031924156
aF872.2720954223126
aF869.9154822835972
aF420.9788451421187
aF915.7878246081729
aF925.230533391687
aF873.85021561304
aF989.813876336654
aF840.0755105410817
aF1069.8399147417708
aF826.7143109261572
aF972.3782732073853
aF931.5462368691815
aF927.7336221360988
aF745.6540648106959
aF1264.0741846540925
aF902.381027379158
aF892.0282406075444
aF832.0465601066112
aF885.770507762943
aF881.9756072303517
aF901.5724222088855
aF848.4102100707439
aF851.8863326664991
aF929.4754368216217
aF933.6736861587741
aF808.0992580673814
aF951.3002947856075
aF904.4048151922234
aF788.116166226746
aF967.6395188432682
aF861.5438266362812
aF923.7384672222379
aF842.123614443069
aF956.2614349418459
aF999.2088215702947
aF832.7077205857711
aF1163.9718459243381
aF939.9192944044444
aF758.8450637353687
aF746.8933610521628
aF826.2172167942924
aF1273.8326489874155
aF880.4793542977591
aF401.74335109089674
aF804.4622641831884
aF877.1212005691368
aF1483.4662461934954
aF955.2999001618815
aF573.347374332221
aF1213.9317497379548
aF441.9090130983633
aF992.0930491523194
aF839.1140989469467
aF929.6701910745223
aF894.2716882329972
aF680.6908031114127
aF876.9787577406967
aF940.9130807954788
aF862.2146388903882
aF984.7519684149657
aF942.9817960543326
aF1149.598049601757
aF580.2799460646903
aF810.9611086012065
aF1157.8956313747578
aF843.3170541859974
aF877.7126218862635
aF976.391400983643
aF888.646042042066
aF944.8552740074085
aF827.673122525311
aF605.2625844019536
aF858.6534252343076
aF893.099366804605
aF924.3091098720126
aF941.1330440202329
aF967.4123198705615
aF980.2643258743498
aF572.0913697591031
aF812.2788892317938
aF917.4054916656618
aF689.5416436385404
aF932.2659958092178
aF1341.1764059165
aF884.2068229949726
aF795.863065424507
aF1381.0131620529883
aF885.6602302134913
aF786.0195304726508
aF897.8313533592086
aF531.7608790180602
aF1343.42704963621
aF901.3418610678416
aF500.6801639519516
aF999.8216579081627
aF912.4574217340028
aF864.0459575956874
aF811.2909977412879
aF958.7531482270541
aF1037.807978755026
aF931.6648153183809
aF959.0325251033889
aF1022.7472756752956
aF901.9038200840004
aF795.6527187455478
aF875.4085328127665
aF776.3582202750978
aF898.5598090939608
aF886.9267541018799
aF826.5279713235893
aF960.7825319922026
aF822.1063356196825
aF684.4423085748132
aF1521.4632847520415
aF963.4023345900514
aF769.4555699920336
aF790.0614323697287
aF939.4084994044928
aF884.0778264363108
aF974.46802276262
aF716.3512031753818
aF1019.3157990143703
aF879.3760044116037
aF986.3232305626332
aF916.9495477729165
aF906.1886933340872
aF887.0884005723207
aF1135.0258094631224
aF919.2187402520608
aF1610.3650035598457
aF884.2868506614329
aF874.5409408626797
aF837.5065674216007
aF889.2387630892786
aF729.1650423874705
aF864.110376018699
aF1000.7192706507988
aF1080.5482676269824
aF1155.4449129935338
aF1110.550698238211
aF945.1586137080631
aF982.9578928153189
aF992.519558108977
aF497.85538029833543
aF904.2412606201867
aF991.949492888531
aF972.6706793379186
aF393.1326344283346
aF908.2097705217226
aF913.7391651103478
aF841.4697209265744
aF848.836984561072
aF505.6659414720605
aF866.7942888282641
aF476.8206049068399
aF795.2910795573086
aF909.7065735853254
aF807.5750878570452
aF804.3222607313527
aF950.9075819785
aF1073.4700934442687
aF868.5867453183782
aF776.7101260777237
aF802.2180958632357
aF828.1117627725121
aF878.5353638336417
aF907.6744670721648
aF845.6520182760189
aF946.5928656250784
aF771.7151739521836
aF1319.343061963882
aF902.8383000277623
aF837.1619998257502
aF902.3835770044359
aF895.7994000422465
aF1180.2148873155543
aF987.7587736671578
aF749.2168874701282
aF914.7299091113888
aF830.4363512682409
aF963.7526369207255
aF1568.3383007376115
aF922.0052207049872
aF558.4519015939098
aF877.7298491631095
aF874.0936210890189
aF841.5377745882611
aF853.0640362246897
aF873.6795308442755
aF855.7379304632498
aF877.9635893607754
aF894.683881134115
aF1257.7290617805663
aF838.1821067717913
aF1048.4936754791588
aF889.388526397567
aF715.6892399671838
aF817.5084507281495
aF944.3416780161451
aF843.216958055589
aF975.3026329329349
aF981.8700495095452
aF830.2916673212534
aF945.4048568766831
aF880.7190067118573
aF794.6672200216354
aF964.1546618908396
aF1174.4721726289163
aF809.3170911653037
aF572.3680772252492
aF988.6548607622528
aF1386.484561491401
aF976.835343827994
aF988.2341330262025
aF991.8697266855746
aF905.195699833268
aF658.5650741252833
aF679.9786851243312
aF899.8390800799481
aF973.4092093497663
aF513.3070028953191
aF911.2717514965295
aF818.4057195529123
aF904.2293320340849
aF1086.964545344792
aF895.1811148184539
aF963.5532036773477
aF599.5538081003577
aF807.1492166249612
aF913.3956026943064
aF1017.1960835849088
aF862.9545272159021
aF1037.879014976323
aF879.9182545948751
aF874.6161549633887
aF852.9328038387159
aF870.0137456183918
aF1292.0189731502066
aF955.0241202606194
aF905.8577328798609
aF919.0531492418348
aF836.4713745467984
aF1128.102391641713
aF860.0836985911969
aF1089.3800758018535
aF956.0732440949174
aF929.0669650525604
aF824.0547270869965
aF944.2596328518828
aF822.964974374646
aF872.591537964119
aF868.5410827862627
aF891.1199851383933
aF863.2587691546937
aF602.9230349395276
aF1034.485988424417
aF1280.5626161738207
aF619.2222221444904
aF840.6552926767646
aF862.2085049598302
aF859.649059150376
aF943.2326806791717
aF725.8206447527243
aF702.1107011489744
aF896.436789012296
aF973.089356659035
aF821.0972042432074
aF832.5700454016323
aF549.375678057685
aF969.1203444586005
aF933.7693134008355
aF871.0474899407183
aF500.94194932871665
aF818.8019919017639
aF841.8612644742956
aF804.5444625276536
aF906.8536599109556
aF913.4563208910324
aF1488.4454076148863
aF728.6504724275371
aF983.7255042884786
aF979.2024891386577
aF878.8921192161994
aF453.4097401678369
aF897.0750514040252
aF997.6260996398091
aF572.4098148837297
aF876.7200483785598
aF604.5098122349242
aF902.701305364899
aF661.1051111888032
aF882.2279779062522
aF841.4217144023588
aF912.4122159120177
aF459.79185132088094
aF820.3971551637078
aF880.8027210738519
aF877.4698358794733
aF633.0310414036193
aF763.156223553572
aF879.0254883511288
aF915.4079108382612
aF402.302284973442
aF940.9414306782389
aF894.6988686961072
aF943.6100812344894
aF930.9034651946886
aF868.5255276470359
aF922.9639482048467
aF462.8773196799011
aF1012.5735696073797
aF1063.2248241285147
aF934.5567249836841
aF979.3608806806014
aF807.7454528070158
aF987.8720526896792
aF900.4351980440364
aF881.5264385862018
aF839.971772613227
aF767.8778281850484
aF790.4831839028175
aF1113.2784580000944
aF1046.6009083304277
aF887.3471540928833
aF906.3298168556913
aF687.1532572534927
aF846.4031987461425
aF773.1397119844369
aF979.6643355442301
aF875.5045985723787
aF783.1287097012757
aF767.6677655699567
aF893.2518611172628
aF818.3627375500336
aF1002.855557561774
aF778.1139509117376
aF722.2823077525251
aF940.4426659531014
aF640.4492166471186
aF1047.3079562794076
aF851.8090226184961
aF923.6382774481347
aF919.2794289337793
aF992.1094388032569
aF1014.9224836614666
aF998.407510975005
aF940.3463306220549
aF1009.403695297064
aF966.3239777471949
aF774.8792411186724
aF971.1170216080149
aF463.13202186231854
aF963.145278127368
aF1015.8783367461144
aF578.5538676958885
aF690.8887848920607
aF883.0436983941247
aF999.9999999254942
aF1203.2774117041324
aF1142.3569447545008
aF341.0688758332848
aF908.1328798666053
aF820.3516968676565
aF843.9218088087322
aF862.0837045341854
aF866.0534080312599
aF884.1701738259825
aF830.0798581164422
aF873.7383277571196
aF719.6229058820458
aF982.7294388317516
aF909.1991885545394
aF829.3019062099489
aF917.321972534604
aF565.0737947569206
aF856.7181929695716
aF938.6715406366487
aF925.8371286878618
aF985.5539135287511
aF951.6871720303053
aF886.8437487060324
aF851.3637612335165
aF975.2918790309859
aF621.9715174633575
aF881.4613613036915
aF1017.9481588801353
aF910.7519321530599
aF807.5006200966252
aF873.7117800076572
aF705.929208514818
aF836.573967302464
aF815.3507550158765
aF958.1581025074205
aF886.0379070866709
aF873.9352149542609
aF805.7584551717869
aF918.9459020175659
aF761.2715881783171
aF989.9184420337099
aF901.7899461543777
aF876.7685708189804
aF821.4261600336836
aF1182.901120629661
aF786.9389943273726
aF819.4857552424901
aF851.1442003759055
aF811.8406290969593
aF1372.5330142127455
aF1048.160867128894
aF958.9878538533993
aF923.5263057000902
aF843.8082717799165
aF862.9160370633113
aF938.6140336621227
aF875.4969427814242
aF448.99071609489675
aF1027.2371628255305
aF809.4753744509549
aF1019.4103464007478
aF783.9942010704008
aF752.044130948768
aF1048.5801749834632
aF983.236516757256
aF989.0695349790496
aF951.0985559816427
aF818.2752167003295
aF854.6103017992315
aF949.4893535127073
aF997.324925156785
aF1021.9499264870428
aF884.5350409103023
aF904.8006867373119
aF1000.3221525937296
aF984.9098199378997
aF754.8901438435093
aF988.3289260281879
aF970.670388198396
aF976.8133882624443
aF903.4014457854595
aF864.4085654717047
aF598.6024845965566
aF669.9799457312453
aF881.0506473850139
aF1188.8021757985027
aF353.8993904884855
aF785.0949329628673
aF865.8582934785916
aF930.0396422582064
aF919.1380140586518
aF919.6013788505404
aF1015.8627648930593
aF948.7154477990673
aF465.6595104212988
aF906.0180709082722
aF758.0588778212384
aF857.0182060163636
aF949.1773926511306
aF870.9934113385093
aF409.341349889552
aF835.2192841386916
aF999.9204250536006
aF967.6383600484916
aF825.5610217469463
aF817.8651643372662
aF887.797228690584
aF883.1263353936561
aF828.926669736327
aF856.357730693479
aF828.7084642652572
aF909.1390846671867
aF859.7675655563578
aF863.3700321135001
aF903.0026644933499
aF1004.8208246227116
aF905.529945869669
aF750.3794412210941
aF931.1969485137387
aF858.307768354991
aF791.6058078484479
aF838.1404481772678
aF878.4748043628911
aF948.6938456013459
aF915.5163920199537
aF862.4940401881782
aF1008.5606784990545
aF982.9574655643712
aF1165.8656535907328
aF454.01211284458094
aF985.4586850217797
aF805.4204517860694
aF938.6724053407335
aF1238.234442903272
aF774.6107547100243
aF961.8331026959505
aF382.4395381195291
aF1245.7985526081525
aF904.4662412338116
aF662.0970005924025
aF893.7331556927353
aF924.9975461956442
aF949.8326601643238
aF880.9870373961463
aF923.8651542998459
aF832.658242672959
aF1497.3440040261157
aF997.5728210381141
aF903.4499754812989
aF530.2410576502203
aF827.7328350405385
aF1521.535305067215
aF999.6929508285596
aF817.1227701217506
aF495.0239195726264
aF835.0704989240678
aF880.2405293183958
aF913.0446410526819
aF944.3128944940031
aF903.7211290721664
aF773.1397119844369
aF900.7417578441103
aF822.9249815287391
aF973.616979251899
aF932.5470008439682
aF870.157190476897
aF995.2378356884309
aF804.3954686997421
aF456.7051864200675
aF1174.9549433435232
aF847.5095566202199
aF941.215017134619
aF918.5997226806687
aF880.2204394378225
aF950.8550535200753
aF752.0276073758233
aF945.2495578335006
aF794.8817870475091
aF999.1047954073324
aF983.5344041136817
aF832.8669134764816
aF788.4768880690743
aF1043.7649583839288
aF867.5000127995474
aF801.9395544699228
aF927.8116406619031
aF784.6371668540703
aF946.7367433166804
aF998.182630775017
aF931.7795062530233
aF1184.6420616184437
aF962.4500770771957
aF1155.7477128034475
aF978.1763741391192
aF1192.4551325210643
aF905.5983578196158
aF872.612995411416
aF842.4527323306818
aF911.9375145691047
aF659.85814193647
aF945.304993583791
aF857.282830607573
aF818.6835922039484
aF1042.4533584243572
aF898.7656415668566
aF804.9673972128246
aF1092.3941966934126
aF277.6510396329123
aF821.1589031839851
aF894.684850434493
aF577.0703631065944
aF886.1935990072527
aF862.0386451332341
aF967.0792231086685
aF999.9999999254942
aF705.8140419481158
aF871.2748298822363
aF812.487611324219
aF970.3347692822487
aF956.4489270992634
aF890.2527253582665
aF803.2271924137018
aF989.757649105799
aF1100.084392162177
aF373.01465525711075
aF1041.827014122216
aF1056.0524827977536
aF892.5537650125302
aF945.2063913875011
aF758.4111113570127
aF759.1961251642456
aF782.5721029307028
aF550.584916816914
aF1399.081012719385
aF941.0524525054243
aF735.1356691986582
aF999.3239115727355
aF1308.7039329757486
aF892.9072088621982
aF897.4206351221409
aF978.1191939444376
aF954.4761698032073
aF787.6611319844753
aF926.2555733660122
aF932.1119799698487
aF923.4761663703438
aF892.7943974813098
aF460.82121875500314
aF868.434547556021
aF930.495716846851
aF915.6759638616221
aF992.3402684112576
aF962.0482839787137
aF671.6496041422399
aF803.2461748334389
aF339.8600903369274
aF916.656414583862
aF927.4805352464384
aF858.6275607470134
aF630.156256343091
aF887.5132766955498
aF854.7492545063218
aF541.380879841259
aF879.5522437747185
aF999.9999999254942
aF495.3268819975691
aF797.1806320638882
aF884.6956413754931
aF853.2856645757093
aF981.4690020850082
aF887.1426570060794
aF970.2640340316146
aF829.0470843120075
aF854.9673398049947
aF1022.2849351733116
aF915.6545175029057
aF343.78030603299686
aF1039.4887406457174
aF915.7409226922605
aF758.8032103429899
aF881.9667630763321
aF991.8161669350345
aF844.7188118954211
aF922.4508860644842
aF839.743390347438
aF999.828343114417
aF911.4980755598664
aF1625.7059886668667
aF999.303145735152
aF1011.5273612211895
aF760.5383395550862
aF881.7292640975245
aF1091.3402566439902
aF821.5000194600707
aF484.82294495786925
aF1176.6776218206498
aF883.6234080875737
aF809.7683599476953
aF912.2665647528775
aF606.1809126564999
aF1065.7408662584864
aF908.7620736239165
aF981.4400350842317
aF999.8629784896376
aF959.025996632954
aF890.3019114624088
aF866.0015201703112
aF905.0634203947361
aF419.67223126398665
aF913.3681382352024
aF929.291363415927
aF998.9047734852388
aF583.3637346642603
aF762.0926225291421
aF1022.1574624443491
aF1035.7128434743079
aF861.0646350314969
aF894.2725056743711
aF1088.0971119550309
aF836.2510639509827
aF881.0708666830045
aF885.5471397476838
aF857.2051687606951
aF971.3700737393758
aF1002.8765384557098
aF886.8257304852125
aF970.8204546474025
aF1177.7865870318908
aF768.0311373430565
aF892.035588032309
aF577.0703631065944
aF988.3030488113386
aF903.9355239976996
aF849.0173346928322
aF876.2680993628028
aF888.5479336052006
aF1308.5532682827877
aF856.4064532448216
aF773.7756909499598
aF892.996741281229
aF822.5977371213355
aF849.5675318896851
aF861.7250131242231
aF871.4086020985447
aF852.1625613739183
aF804.8595558010644
aF351.54915725619503
aF846.0830593149974
aF673.5129727523143
aF959.2816997049549
aF842.627367413798
aF942.3588087030191
aF924.1810733173769
aF908.160681327437
aF806.8812549833976
aF894.4957918920222
aF855.3871530301928
aF1137.7044635367267
aF985.5593439635121
aF794.8817870475091
aF931.4082080032183
aF997.2887753877951
aF607.7331001859172
aF947.2496106554877
aF834.7942494993307
aF432.22429960388274
aF841.1672460123276
aF795.367689414593
aF888.4725208568312
aF869.7622308518115
aF999.6477585558505
aF792.3927117242456
aF1169.433933739463
aF884.240797328146
aF942.6308320809283
aF834.8205196466463
aF1003.1130870190416
aF997.6004063210214
aF973.2249479895962
aF900.023567239922
aF840.7041677169392
aF982.7383416547242
aF657.6520930245192
aF1366.1244817970332
aF842.5211722562731
aF870.0178333205729
aF741.4510534974843
aF474.91336416693804
aF658.3820561333753
aF888.5440408646609
aF940.0225864766041
aF821.6527496127976
aF728.7936678131919
aF944.5994264469468
aF448.3240581536834
aF889.9730952067491
aF877.0049752938392
aF950.5621770277317
aF1056.4293636466996
aF928.8334902008769
aF933.9407482013473
aF944.8732547381533
aF500.8331236594823
aF1123.8017628499103
aF700.8916695057923
aF881.0770917644888
aF870.2924126441432
aF953.0014097955361
aF1377.4010231223863
aF818.1439518760259
aF981.1534047189108
aF981.3019788973432
aF997.6627278541065
aF841.7736262855923
aF861.7240010110007
aF833.5067818957477
aF912.5629675235296
aF910.2099768654251
aF857.6455648073289
aF885.1364444259116
aF560.7595138484623
aF727.881308822117
aF850.9807740678091
aF865.4089255602603
aF791.9204041839333
aF679.2697804663773
aF1110.618521836549
aF859.1920612511374
aF1058.7498046771293
aF976.6757877706951
aF823.2097525371105
aF1129.528489936045
aF617.9253358474867
aF780.7150179812037
aF999.9999999254942
aF690.9688884378137
aF879.7064902751686
aF917.0151783224101
aF900.9804619574371
aF907.1980147669557
aF832.1168226849692
aF811.8365187204954
aF689.8879652443608
aF495.5316848020485
aF842.3607588959381
aF993.7497294541897
aF579.5987092025046
aF904.6062510968042
aF999.2396985104268
aF1071.5422640185723
aF1088.568636858051
aF876.2741480871185
aF907.0154960693186
aF843.815899239042
aF947.0039057737902
aF859.9612201955131
aF858.3894734111515
aF892.7101768013084
aF953.6578994987251
aF942.7758645090522
aF915.5050151797972
aF971.0160573436299
aF1025.428977842859
aF411.46328737764594
aF832.1168226849692
aF798.3009791986831
aF878.125938601792
aF1437.5999237435706
aF664.9586085193054
aF886.0160516606943
aF901.212897914723
aF1430.9667743956184
aF803.2976087070723
aF898.1264406721729
aF818.2077982594709
aF937.1996998537685
aF916.8347822301398
aF836.1737405727706
aF852.5746441278235
aF999.5416356077199
aF1140.9885786990878
aF465.28397542303526
aF844.045098773903
aF925.1911893970465
aF887.9375358732925
aF820.8463173835221
aF867.5000127995474
aF999.9999999254942
aF869.8794095733098
aF1142.3462840522252
aF782.8268650853197
aF1095.0699086696075
aF595.8316855423988
aF461.01410908028276
aF955.9474082794957
aF617.4748344808064
aF874.125646538834
aF982.2243927959881
aF1181.42828116439
aF1497.0254948568106
aF818.5753207651608
aF603.5741592640095
aF1010.2554965104248
aF1041.384255871668
aF897.1903072539744
aF1080.378232696292
aF1040.9619626225112
aF999.5395986664398
aF1197.1832052708528
aF982.3443733509445
aF684.0962803704294
aF999.9899483086331
aF1060.3317053619037
aF937.7594477678851
aF1176.3312193294948
aF1367.1542151547842
aF701.7240511477563
aF662.9560053612107
aF998.3102739914805
aF882.9052183803852
aF494.37605859441794
aF644.2111246330112
aF1011.0482333515856
aF955.7952731492451
aF1369.8071587851487
aF831.307932531295
aF465.20653456812704
aF984.8960833878945
aF894.8550089308557
aF1174.495372981166
aF986.0841425117585
aF704.5782830742778
aF898.4689471768925
aF1018.7101812728827
aF943.2024017778219
aF1009.2348564440057
aF939.5056563082782
aF1007.3803919286551
aF1026.207853697364
aF947.1226440414734
aF978.2537256402087
aF796.0639698903614
aF882.4646754785522
aF830.722358017664
aF1023.7206171026794
aF891.8727387629157
aF1578.0245217886618
aF917.398730269767
aF1073.2154974615855
aF825.986654560055
aF837.5943842710632
aF860.6550776768452
aF889.3970083430331
aF1024.4738447997115
aF836.7459045768966
aF1042.5353129280254
aF735.5407778580523
aF724.8198419086841
aF999.3895879275758
aF1583.5996148468314
aF1203.9801813628235
aF541.6696836143561
aF1254.91459786501
aF760.0764590575042
aF884.8772294990224
aF1619.467858294232
aF652.7869722192206
aF829.3486823544965
aF696.8439443316394
aF1066.2530645310926
aF741.7365488786864
aF1235.2555538208726
aF905.1153910277336
aF1145.60140292436
aF1108.867756973128
aF1095.551856179917
aF1087.9552365411078
aF1046.0068146686065
aF1916.147205977672
aF878.5899078051041
aF1067.7395561338542
aF995.223859082038
aF727.0652535381513
aF1008.7507608473318
aF877.6968995129322
aF971.6088307573149
aF982.8197883542008
aF974.2144287691533
aF684.9213192396371
aF999.9376192684633
aF631.1621706345886
aF1717.4255301355704
aF1346.7786268795564
aF842.8344745602307
aF398.1124656001614
aF1540.9347781822084
aF726.2075284162346
aF1522.4488977293247
aF856.4137603322282
aF1316.9680325668376
aF1001.2618387340372
aF1216.2765939858364
aF879.0920059839891
aF861.6382293653744
aF1733.2248972975517
aF1439.6237925852265
aF776.262873876127
aF998.9873933867352
aF999.8332289634759
aF997.4702574831838
aF1370.5678449667362
aF963.6964893334281
aF1735.153231496917
aF495.9100451881567
aF934.4808520650897
aF1003.6426778522155
aF1157.3269646724175
aF994.7702957210098
aF1376.1986080431916
aF547.7310426923967
aF987.2474883312174
aF986.1331138452301
aF1038.209495654936
aF1077.722266077698
aF1832.4355294924515
aF980.5586760896836
aF1129.224879790575
aF696.0422902925374
aF885.0363543024934
aF1277.638384820481
aF808.3859789183209
aF949.8224633297153
aF1773.8866859983555
aF763.8344441628795
aF1018.906838804123
aF974.5419923290417
aF715.967479905336
aF1637.644488175928
aF609.7284240722995
aF927.6949503447642
aF835.6385095047463
aF997.1562297946787
aF987.994582711717
aF1031.768095477741
aF635.9612327568661
aF1375.7797623160675
aF946.1036334194421
aF1248.5765716379597
aF1407.3457795674553
aF912.3515903935543
aF988.4945166596005
aF473.2839920917616
aF753.6097618613226
aF1424.7546111995375
aF1122.2995569205655
aF1287.189977101119
aF818.336000283206
aF1168.5291145504839
aF749.4821964272193
aF600.7668199369433
aF546.9208830646334
aF961.6419988308472
aF1008.5820623837128
aF1184.3239795990005
aF1307.6937036694324
aF1374.113948767616
aF1170.2747681473786
aF1050.2223913829944
aF1330.6087386498941
aF1198.938214324202
aF644.4736253015525
aF913.5007727592423
aF1167.898169193432
aF1229.051073085946
aF1195.5333053583995
aF692.4191997979518
aF570.907414057696
aF946.4928030162476
aF955.2805946083815
aF970.32910437341
aF916.8525532609184
aF1590.3457454474396
aF711.7431365110278
aF1387.6270215840332
aF534.7312250726299
aF447.364838613478
aF852.1624777110012
aF555.4711489224276
aF789.226565223694
aF1242.272856037509
aF530.127599121794
aF717.325797213681
aF1440.0505861743623
aF1521.0926740055793
aF741.825462791975
aF954.6932143067542
aF1053.0040516196489
aF737.2970076205819
aF930.7561619557679
aF1440.4826326681714
aF1052.5296804092359
aF840.4013143861382
aF509.5940229270599
aF950.8482543442636
aF614.8553233334438
aF999.0835461685392
aF1885.480239263793
aF739.7185190656967
aF1059.0930613160751
aF545.8790704695941
aF960.2614383151795
aF904.0911219025709
aF1239.0155918575483
aF1188.9455222357558
aF1235.884072160127
aF1372.3648987945164
aF1344.8818958941863
aF1462.4984267315676
aF553.4609930143856
aF726.1715618240264
aF1149.5302055278387
aF810.8394443754036
aF1192.160072548134
aF1106.3773235094745
aF1732.5525041574206
aF543.9676903171168
aF1010.5324948775111
aF1150.2026227713018
aF908.1035088953017
aF770.950647431912
aF908.2448007338847
aF1094.6134313958287
aF730.0470766558348
aF979.8123583305105
aF753.6039460027158
aF928.3326934704661
aF916.1358227858807
aF781.1680614142842
aF1689.1704314098117
aF1118.2250303109927
aF904.4205348126917
aF951.5086903689414
aF1547.196293244694
aF1718.8338654067454
aF751.5825477076717
aF612.3267841650171
aF713.7270352460315
aF784.9220072340809
aF967.8055588814312
aF1073.3610558725316
aF1670.824385616378
aF872.5549169486051
aF1271.1440312985076
aF780.8099678225173
aF966.2231827982573
aF1155.2528020290788
aF1013.4317997837002
aF931.4403865946476
aF1128.4954161439362
aF999.6104350277784
aF852.7981366422025
aF752.7209983328173
aF747.2032035372994
aF995.0961466718054
aF523.5792024769239
aF882.3628597279364
aF908.5252189881165
aF1047.0234501509622
aF733.4831767886149
aF636.0646023483024
aF839.3384924994708
aF595.7105264692738
aF1052.5694253298984
aF1204.5179729549736
aF857.9973496971463
aF919.5551084412843
aF767.237556713256
aF846.40502651945
aF679.3196903159828
aF923.5720552336833
aF1468.110177343659
aF1046.7977136410561
aF1005.9303674959469
aF916.5086856303373
aF809.6660249549151
aF997.1494277933866
aF847.581102710938
aF911.308754723513
aF1148.1740931640386
aF1092.2965747716003
aF1189.5511436274378
aF1004.0314829287457
aF1079.2245747393654
aF844.6804444775519
aF1301.9162718084299
aF857.9835628185851
aF990.9258747268657
aF1154.691970819575
aF961.8486605991855
aF920.5509824048379
aF966.6750175819741
aF432.86388195835076
aF343.1691812143902
aF824.7807012057492
aF861.4775207764075
aF1158.6930974089692
aF936.8139919412854
aF1381.3440287774679
aF999.8738674248235
aF1007.1857848507534
aF858.5430212897646
aF642.5122123881466
aF968.0178300927203
aF555.1438768755501
aF996.5045556366919
aF1007.0407554595307
aF517.2397317211771
aF695.9345964074815
aF1230.9230538715578
aF862.4126411285614
aF1127.570717305858
aF878.299990248705
aF648.006593599842
aF550.0615939849646
aF1070.0544554787796
aF1638.4388986977551
aF1173.6930859258075
aF537.5429499562298
aF1213.897117888686
aF1544.2472143396956
aF1015.0375611899578
aF834.7408635643872
aF1594.5061118729664
aF1396.2058599201207
aF983.9031251764845
aF1744.867970866821
aF1396.9553829710908
aF788.1313298786054
aF891.0262521146451
aF1131.1822953789015
aF1008.8211007607579
aF810.7501046565666
aF1022.5294306986027
aF883.00892637352
aF930.9146640602132
aF1036.9525966387992
aF1042.128295992081
aF900.9825207006896
aF850.2191534632768
aF516.8265107706543
aF998.398832146396
aF1649.1070831357333
aF1609.7613059550677
aF1121.3251801085512
aF1590.8207425961405
aF476.76699620465564
aF830.0554046322274
aF909.6199937309291
aF1372.803444612685
aF1360.1573836450307
aF585.0232940987694
aF1003.5891000250657
aF697.3229640340437
aF648.1890471001817
aF1053.1758928881293
aF953.8846235349127
aF847.8083423555155
aF511.1021067268893
aF924.469889228561
aF1083.400444959511
aF784.5859077697211
aF1546.0825633480545
aF798.1963275690094
aF1175.4765482020337
aF1352.787338828895
aF860.2352438892383
aF984.4966429790023
aF1109.807502638447
aF1029.353158553848
aF1110.4070649470564
aF660.6963922306487
aF1077.4477093741586
aF998.8964683252292
aF977.247637416647
aF836.3567370787578
aF999.9999999254942
aF729.8228183800934
aF1754.4711341487625
aF961.6876797598795
aF951.6696177287351
aF1291.4896700514284
aF710.405387118595
aF666.4861432666394
aF827.1547694345251
aF568.298090255981
aF735.3710757057344
aF954.9728694246737
aF872.1577010121306
aF846.8965961448556
aF890.8456145563206
aF1552.8684449045559
aF999.9999999254942
aF996.4597029826015
aF820.4602662838985
aF921.5840929282843
aF994.7497843877679
aF1753.3720557027668
aF859.5898415224864
aF1352.26098964538
aF859.867306040867
aF1481.6826519269193
aF1052.6614238032519
aF470.2908289006417
aF461.3784708991694
aF476.967049631882
aF749.3670796544825
aF1035.1588622116108
aF936.5372273315614
aF911.712644184682
aF797.32548505948
aF982.8449681759682
aF1037.69977438181
aF1026.4646758352765
aF1444.4238365073365
aF894.6788875293327
aF1258.5989813783892
aF834.3595642838393
aF1366.9551227838842
aF806.9373565047532
aF1228.4058281629568
aF712.7717022850238
aF941.948556301538
aF691.7410243795568
aF858.6546694704506
aF516.4329171762917
aF1029.8022948647645
aF897.9738836410153
aF1097.433337690919
aF995.2501105954451
aF598.0771836178369
aF1240.649355998006
aF1445.4310598017232
aF1648.6412005119337
aF986.3784152788764
aF1021.8427963353417
aF759.2897852026838
aF1180.5769732179606
aF1322.0499927184176
aF682.0057546550403
aF679.3196903159828
aF900.393554910222
aF1332.3421179093828
aF980.5784000243137
aF1058.386550823298
aF822.204312031425
aF1227.7015545249133
aF1341.807868657413
aF904.4205348126917
aF1002.8453195217621
aF898.651314461084
aF677.5891145259293
aF949.3353083952047
aF1113.9238231979512
aF583.0616575244444
aF635.2859021444652
aF330.4571409203162
aF494.55110646506665
aF999.9999999254942
aF977.7536337713987
aF834.2138712933836
aF901.2523245911701
aF1461.7809780027853
aF487.0446022111155
aF1652.905210348841
aF872.5314951269851
aF984.2471921888746
aF1153.5316371620836
aF995.1268672688212
aF989.1541368046621
aF886.9525399125621
aF1001.106948579794
aF734.7547511370132
aF1188.5159981260201
aF960.9464343031758
aF623.610788262488
aF1068.334655016367
aF900.7127294806883
aF667.2969467990023
aF1292.1770324224353
aF1137.3081062957183
aF732.738413485489
aF1068.6805039980902
aF709.3338312236259
aF990.9963167473569
aF1299.0456491306113
aF1010.8927412063308
aF610.127990176549
aF849.8647350718318
aF1112.1207311807104
aF1006.2257053142434
aF973.572013951109
aF1016.0148030300811
aF1408.086944669027
aF1169.0911181509146
aF551.8862853679869
aF997.208430673938
aF878.1291489970553
aF736.2281971095741
aF1021.7878790905431
aF989.9189521962229
aF796.6364889165401
aF668.968117213106
aF678.6365078036856
aF1527.9369466626692
aF1003.8415410333441
aF511.0194254782387
aF648.8197511308229
aF945.9613954635943
aF1247.1303122928473
aF1170.909200774105
aF999.2224668393409
aF892.2619262244342
aF948.6329933531065
aF784.0441171266609
aF823.3167137135152
aF535.7094375466002
aF824.8595450760091
aF627.2091542561492
aF912.9094963112971
aF974.8837597972065
aF998.7174510080413
aF1000.3003415074804
aF550.8096565673649
aF967.4769236548378
aF1059.9020393396609
aF542.7042363354543
aF1392.0581221028924
aF962.2663053656565
aF1179.008808525088
aF979.7531568881834
aF506.3529930177416
aF668.3419766953297
aF1593.8224397422491
aF1338.936302741811
aF833.2388767342542
aF999.3925041680329
aF742.0347248987066
aF812.0939704489069
aF798.1245146225381
aF722.934592731155
aF447.364838613478
aF898.9303941069595
aF540.0077794838974
aF994.4420988900484
aF1730.8320018001978
aF957.8200496189431
aF1303.7591159716653
aF1005.827140854127
aF1803.8535085032076
aF848.294059642667
aF480.8274006345792
aF1006.7206961183363
aF399.2827155231896
aF1452.452929891935
aF669.9289834550165
aF981.9436814488174
aF597.3015295908472
aF1554.2048637899766
aF604.9186040973823
aF768.6614412436837
aF831.7868881613417
aF893.3389333511179
aF592.1103929051624
aF1201.1442053535634
aF1018.2949559415131
aF950.3121039817185
aF859.5896491093847
aF988.7649970383347
aF1007.058198276781
aF799.3151523407039
aF902.4898073185982
aF1044.9101587389875
aF1390.4663164827848
aF1338.7476397677742
aF999.8319451941265
aF539.7349772391074
aF1002.0442750279569
aF1355.652874264777
aF805.8746371025202
aF1411.5154774032364
aF534.7312250726299
aF900.971873697626
aF852.0742576423688
aF864.5055621004229
aF998.8641000105276
aF732.9367951639099
aF1657.1971275831268
aF671.0070856427388
aF869.9107518633515
aF1211.1462078825018
aF980.8536783409215
aF979.7265804710921
aF721.8138631904064
aF792.8334273992436
aF785.5614463028195
aF1413.8933407611541
aF341.1916795117926
aF832.0016162100725
aF987.3890015343077
aF563.5162622809273
aF849.8647350718318
aF1000.0675767466539
aF1034.1087711837774
aF998.7168847695709
aF830.1354423117638
aF1010.8331985368557
aF559.7861902488717
aF843.8450311722659
aF538.8672147579324
aF977.8895364439716
aF1260.1079602654424
aF708.0913200346145
aF1355.306322820706
aF993.7384688378377
aF1019.048232362115
aF912.7343719285799
aF819.0426531346088
aF1265.0629311615198
aF963.1837622200004
aF669.1165811172242
aF1153.5316371620836
aF1518.6374153028894
aF1081.4662955103831
aF982.6062035537926
aF1042.3771849532786
aF672.6432695087651
aF997.6989442271495
aF547.3729005402624
aF733.8413570609248
aF1078.8637703689515
aF1292.3338683675738
aF1140.4409785364562
aF1510.2525520117001
aF949.4469184536558
aF738.8475150021117
aF1002.4908863984158
aF860.134458866522
aF942.9273831765724
aF1073.828829897657
aF1232.8298370113625
aF611.7690696857375
aF478.50217322606494
aF661.1238169478422
aF1556.3499283703393
aF1909.019988278147
aF696.6418924682715
aF956.7070484096303
aF801.2776179426122
aF974.6721970926901
aF1005.7788471349979
aF939.6506189162087
aF822.8613957891488
aF994.5258874624312
aF989.4503293927753
aF1239.511743545031
aF1349.8731913122688
aF716.4852707515793
aF1330.2794531128698
aF425.88790390370974
aF782.6319825222464
aF944.8701668523969
aF999.8097381215645
aF1745.2165411066394
aF896.9671708091397
aF1058.9306190786835
aF1837.4884921543926
aF1140.1837780055682
aF935.985548966772
aF524.22487735653
aF1434.4591791430794
aF884.0692144392885
aF1053.2102465674693
aF702.4935288811675
aF881.1588440481855
aF1361.6886003789625
aF987.0126144289551
aF1048.195391183609
aF875.9761778861872
aF729.7861833821567
aF485.6311570726612
aF1538.8352996671754
aF1503.7614178161673
aF1836.7921038811592
aF1000.2045181902527
aF889.449124059889
aF834.548938373752
aF999.9999999254942
aF784.0575624717279
aF597.9503356126075
aF1358.470879584399
aF1395.5660248414542
aF880.8314659717175
aF956.1066235598497
aF999.5065866065197
aF988.147158859577
aF958.1728503322224
aF746.8709114423319
aF711.2987419453161
aF1241.5323829532779
aF901.4597194560172
aF999.8292883681652
aF1237.9261809357126
aF863.0645912290951
aF994.5736541433346
aF1525.6273561820917
aF1020.9848088919871
aF996.0963121013092
aF996.1937067349352
aF988.4128709074743
aF1406.2194481129234
aF1172.8376270833392
aF915.8724630381283
aF835.2450966690564
aF1684.4598622335143
aF972.7279946306303
aF1634.3179320034108
aF961.6823823036239
aF952.2640222835835
aF966.5654090209391
aF694.5805653711028
aF989.6979309519572
aF890.871994346657
aF989.215769324741
aF960.3477289465711
aF1574.618905276424
aF903.9880423665188
aF998.1894590286222
aF1090.0942584131192
aF1087.6749222799153
aF793.8571860449888
aF872.607964252468
aF937.6807706703108
aF926.4958976127338
aF1006.9613743146908
aF1008.3857938169064
aF886.4662612586394
aF915.248392896789
aF1208.0274984969292
aF1011.3290883458127
aF985.0890738327829
aF550.667111073425
aF952.759079614123
aF985.1577297970298
aF548.0502635146532
aF550.8105436177995
aF1479.60393225266
aF471.52584913294737
aF759.2870180093615
aF999.2690583456579
aF1803.2164160732925
aF996.7699735433747
aF821.1075506398307
aF627.5090471627043
aF1549.828654075642
aF1380.9566842333375
aF747.5764737265757
aF895.26936536768
aF494.37605859441794
aF608.7485281187998
aF873.5658970307472
aF989.8089716040471
aF913.9283529442396
aF693.0592804174031
aF1122.3437511870923
aF523.9527128052372
aF1633.9311332260822
aF1236.2167101518446
aF999.1375518228833
aF999.8427823179286
aF419.7323738293021
aF1206.3223827599725
aF1052.7392968401327
aF1455.127806592192
aF572.5343223917223
aF907.9124902009765
aF456.8341542493893
aF942.2009670625512
aF1815.391231858455
aF522.6802250217404
aF657.304508190284
aF423.7070422348881
aF1209.9773790274444
aF1000.9095437925885
aF891.8581434399327
aF899.9433541550236
aF1328.1502783496703
aF998.0244775749559
aF910.8974809410297
aF1044.9792815557894
aF455.74772616124585
aF683.1515862658788
aF1081.6410946250776
aF699.9419956224825
aF580.5105214506256
aF792.1352166438941
aF969.6408841596779
aF989.8866115907813
aF1187.6768576942893
aF1074.9091442882905
aF1387.2397095655165
aF1149.1418161850515
aF1336.1906296448485
aF874.5581376029085
aF716.8353997570397
aF1393.7210338755872
aF601.4084947337918
aF405.06425304393684
aF971.456189737127
aF909.693429960011
aF836.5641947564187
aF959.2002194396266
aF1157.7707218786773
aF1166.9342368296998
aF1054.978885499092
aF1116.1051051451457
aF1041.665839996032
aF815.4680266901764
aF1341.4975056467129
aF891.9828590193057
aF784.0186579690147
aF1080.8359245720453
aF1005.1862642669405
aF970.9753882479713
aF684.4126486972834
aF1002.6986142979698
aF909.574276667265
aF1383.0188101859967
aF827.0149868041042
aF1329.5544620357505
aF755.9945421793514
aF999.9999999254942
aF700.4945539387203
aF874.6194756367403
aF1076.3517762637575
aF1101.4942074119317
aF1496.6818676685746
aF1111.904618672149
aF1077.8726905338144
aF922.9254135157474
aF647.6274977664708
aF873.34266945174
aF1709.0210746442908
aF984.7525480137374
aF557.7280715868372
aF778.7288510599458
aF1114.7586463788907
aF1360.3165913386204
aF1455.127806592192
aF986.4694225956436
aF853.2504134356708
aF653.9254878714137
aF1086.2961184357055
aF1338.535340345959
aF1233.1611992108674
aF960.9993849272687
aF386.36517757016156
aF833.8413335910956
aF1226.069948586416
aF749.3162954980329
aF997.2276700886935
aF709.446097293104
aF734.8070943131418
aF977.5019064105769
aF934.0520181423645
aF850.497841767406
aF804.2229133212388
aF967.8200404444452
aF1657.0452975683936
aF933.4036426730988
aF1041.665839996032
aF926.8347896147349
aF639.4376979999437
aF1004.105688688948
aF879.2161474853976
aF1139.2937774666605
aF847.8770417193228
aF1467.3134340136435
aF1018.906838804123
aF1676.2196899113933
aF1595.535339886801
aF1204.5006904634924
aF999.9999999254942
aF1319.970592342557
aF815.1357560775604
aF1106.618433987365
aF970.4052377373321
aF664.6053836096248
aF900.0283138677769
aF801.9828507550282
aF927.9880727148085
aF686.0503670940556
aF1064.7961620165927
aF697.902428427716
aF531.0714398246016
aF1143.9555211123495
aF871.1428492113874
aF1124.4108749254488
aF731.2112966127037
aF932.7975146356381
aF1219.2767215530307
aF842.3947191008816
aF568.6320872044812
aF932.4322434327069
aF693.4802994181769
aF966.2649843111271
aF1274.334639246813
aF1162.4449773437098
aF1018.5300014100882
aF873.1507487513503
aF1180.0378794795765
aF1694.2350959709788
aF938.1264766099548
aF1669.1201238737242
aF873.6394585768994
aF771.82804246626
aF661.6648767180889
aF1009.1231447486998
aF854.5037140059881
aF687.5339677816177
aF946.8389303621633
aF1006.976015618081
aF1267.7011496162131
aF588.5837059600276
aF865.1808223510703
aF1073.5225981988865
aF902.2258451875714
aF1747.2754925226695
aF853.6850683845989
aF999.1089003591665
aF1669.986207088477
aF761.7272053648009
aF1179.5620819013966
aF953.4413001510931
aF845.5585562001697
aF1118.4311093260183
aF1341.1874465531719
aF1650.2614967622817
aF760.4842960944356
aF1022.5356442322206
aF1117.4095209809661
aF970.4287401654992
aF1082.8880992924169
aF843.6766147328944
aF902.326525384977
aF757.7812148024703
aF962.7114878810146
aF865.3167465860549
aF885.4610927191122
aF940.9917490263517
aF922.9135430090579
aF488.0904289670157
aF999.9999999254942
aF891.5652211753336
aF986.3386585973803
aF1066.4816172248784
aF550.8106095967314
aF545.7797391312894
aF1556.6371114816322
aF667.8211083913023
aF1165.8816763554323
aF1128.0140952923841
aF999.9999999254942
aF1056.8533841577866
aF985.8666776696095
aF997.939822065343
aF895.3195297703713
aF1254.8271338607567
aF568.2535999044464
aF1001.9715100775238
aF623.5166984390626
aF963.9999049254995
aF1002.820171441302
aF1608.7461579780193
aF762.8771047676435
aF1039.716177696021
aF775.6861135684422
aF940.2896829011127
aF407.7761302264579
aF741.8936097747486
aF679.7796990060109
aF366.2237622957723
aF750.7175589803617
aF791.7679541180567
aF918.5467113702773
aF865.0250444480065
aF1750.7039242746337
aF858.7646045470696
aF791.957223668479
aF1159.987703611394
aF436.449949552728
aF1307.639382901857
aF973.2435199092371
aF721.8138631904064
aF1112.4582153873725
aF999.9999999254942
aF999.9999999254942
aF903.2126567947159
aF634.6450911962822
aF1545.256918081004
aF999.9999999254942
aF1015.2756804585727
aF1603.9065287731335
aF1581.0126349499492
aF982.7383396656007
aF1007.0215386577647
aF1172.6224890266362
aF905.1416804188499
aF854.5359000334266
aF777.4453727515717
aF922.039307047239
aF1361.8692541911314
aF870.8104402167106
aF1414.4465163271564
aF901.1366939633295
aF561.8595774922987
aF1159.2553246908933
aF1668.5254834691902
aF912.767658583974
aF1185.5731636899666
aF1123.4843352994767
aF1048.4495389517144
aF314.5237401545682
aF746.2949278654158
aF858.5345915095673
aF706.8813244888556
aF1288.1111172998737
aF883.6666857222076
aF1257.4606374779196
aF911.5843685556501
aF999.8596428262412
aF1002.1745154809412
aF1256.0229120877575
aF1056.2115761444943
aF986.8112802462175
aF1124.6035996893065
aF1068.334655016367
aF1172.9012063423609
aF999.1295226846314
aF1452.4023310928853
aF996.9707457197626
aF1620.4799494582871
aF916.0252445779729
aF1230.4303558307233
aF772.9573705849324
aF952.0249726926688
aF547.1211658758124
aF938.6590136163554
aF995.8213069726673
aF1034.9239554791793
aF658.3354756455309
aF940.8507743895287
aF805.0420748885299
aF793.9686309741481
aF895.806637354685
aF730.5618475623223
aF1063.518005902216
aF775.9501737337964
aF883.5015087010647
aF535.2994191079877
aF1000.5077525645689
aF992.0275546797332
aF1045.74890279954
aF900.1468776215047
aF687.6469954293646
aF910.5684394467062
aF991.6315181399765
aF1427.6200978813094
aF1338.5433703846998
aF941.6546956768251
aF1295.4607823470756
aF849.431289660266
aF726.4731220281175
aF996.3594496262031
aF1342.3812415344537
aF1532.8133740574633
aF757.5560787354433
aF1519.1197114334973
aF586.1207142195533
aF1626.989944854167
aF846.302619605065
aF1075.3140454588327
aF971.8564320201363
aF1602.5332177968942
aF885.4219878778127
aF566.8824857826165
aF1167.7752007387812
aF996.9020533885426
aF907.7051012442716
aF999.9999999254942
aF876.5984264422523
aF419.0142720842906
aF1171.4774178926373
aF826.4177268306053
aF908.5578290963487
aF427.22360834876554
aF1412.9612917725817
aF934.4266954558029
aF901.1467144043623
aF879.0364211667518
aF924.265165340368
aF2355.6646649687036
aF1014.8947631218672
aF1542.3663654005466
aF1124.707539919632
aF983.2998044884023
aF407.87567236741137
aF828.645175976461
aF1507.6426004701561
aF1215.570042779093
aF874.682263703022
aF869.9465220825592
aF1289.169414267959
aF663.5475817799971
aF864.5418275532609
aF1068.3110324916836
aF947.6863946712433
aF1019.4155268385034
aF959.0083518988499
aF924.8029133269647
aF947.3021034797075
aF983.2447215864462
aF914.6997072569168
aF563.8924759852391
aF678.0621663221891
aF736.3560128903297
aF787.0275022618382
aF611.1979482617376
aF1036.2274904888332
aF1338.5636269912734
aF724.5667042914594
aF533.5759312261855
aF1077.552989663475
aF1185.5316745680743
aF1462.4007547784945
aF943.4684926275629
aF1894.5093593454048
aF1280.78745986391
aF1052.8469417164674
aF433.87192319409615
aF927.5631414270747
aF996.613747289552
aF727.4860017563307
aF876.090039086406
aF688.7166330802529
aF798.4679966377436
aF808.1826278584632
aF901.9845324345295
aF883.6066175497592
aF716.078746399886
aF816.9954616948274
aF1027.4945742751547
aF1173.3538597842596
aF711.5650777349142
aF993.8825977741019
aF429.6856739026561
aF1471.2297065992423
aF987.9194850302304
aF1689.1156725072324
aF906.7743156007884
aF1079.2125396040362
aF692.5204278742302
aF1714.1924644454043
aF1027.4931298520587
aF693.462831238978
aF1116.434993473282
aF673.3378930572295
aF1011.5190255955811
aF778.4156246839336
aF944.8987831884953
aF952.8900740202903
aF792.4199011453993
aF1195.3415977133757
aF958.7446945473388
aF1280.050467474598
aF884.758263477651
aF949.1701638497074
aF823.4931815999626
aF1266.2383350311438
aF1522.4016207905993
aF990.8053595986883
aF1154.578325428279
aF1415.1320555004663
aF1003.1785970937341
aF577.9018261428909
aF1176.809216083102
aF906.1864606063712
aF639.3778923144763
aF957.7687271870232
aF685.797474057611
aF879.432927880307
aF836.1146915187376
aF867.0653923325941
aF1164.5704168163657
aF645.3848572001662
aF377.2872639244389
aF1178.6896926337379
aF1154.894081976273
aF886.7038724027492
aF993.0688210805228
aF1156.490022047365
aF883.61175631682
aF794.3642468539057
aF1246.0054462140106
aF671.7113242807554
aF986.5425504115426
aF802.3158893935383
aF1212.059929623016
aF925.887724805321
aF1351.8495174731388
aF1028.8454291232783
aF920.1594865421132
aF452.74249137006996
aF1521.34534138437
aF1039.5205247228148
aF1501.436472785499
aF1663.9914159495836
aF1095.1874161635
aF835.3254716390388
aF751.5228738745403
aF707.4619785558276
aF975.1677138381912
aF528.7438677622966
aF927.2143766470922
aF803.3260538307056
aF999.9999999254942
aF783.3565979012958
aF703.5473897055685
aF933.7218412717707
aF1260.104324577917
aF814.0088729259908
aF798.3513733104503
aF772.4313848682535
aF415.6817428737196
aF1080.2792194340545
aF927.6288881463777
aF492.7001861608031
aF862.3278278613888
aF986.3125722953334
aF787.9503805297912
aF543.6262350638391
aF1022.5111553662073
aF833.2356318129657
aF819.3310353092594
aF1040.8545437100263
aF1071.7857965105825
aF1176.6830391927576
aF660.5321013422397
aF1115.5105091790435
aF942.0939314174401
aF408.8288313185712
aF1551.81023402543
aF777.9931730785664
aF510.7016993184317
aF1018.0794045264363
aF1027.7617157052969
aF891.6827186103441
aF917.4836630893931
aF1023.1202603481556
aF1361.5341450583883
aF950.9324704337274
aF1000.4959072046972
aF999.1108408132029
aF1009.4829700104261
aF939.9745585401065
aF966.6325860548303
aF393.0433828770241
aF980.3069044681317
aF817.3567081880743
aF977.156124386996
aF1584.2011121857558
aF747.9177897351635
aF1006.4832533640033
aF1104.3669312835827
aF1215.2315381313088
aF749.6052792076092
aF927.0129789347928
aF1448.4072661537323
aF992.1242338495211
aF972.6681956977217
aF792.9044452838324
aF1614.6548570291584
aF998.9340453817531
aF1160.9786862790017
aF1429.3357185978723
aF1275.4692557121625
aF1547.3053015066635
aF996.8691082866192
aF1007.0145038055177
aF1265.0629337815562
aF942.5393958923833
aF571.1450509228649
aF1422.6088425604034
aF1518.2529326389863
aF999.3060237678094
aF999.9999999254942
aF837.9292415003943
aF1664.1370342126718
aF1633.9049612816766
aF999.3272337649615
aF905.0882817712393
aF1792.7259311043676
aF1022.7893538867781
aF813.4620706272403
aF884.0187105979669
aF1231.9836063040837
aF900.5353867306178
aF543.4289132663831
aF1303.9333414798105
aF556.3669257458222
aF1069.1908767887744
aF1086.3411197670887
aF849.4388880991241
aF697.3229640340437
aF1175.080578179328
aF928.4487916017022
aF908.0499639607888
aF892.5612001479797
aF948.6557774566166
aF1426.0904483423446
aF1109.1985572293065
aF1018.0230944245778
aF671.468500264704
aF1123.9404354686633
aF732.7408343093734
aF1021.9971670538044
aF1454.0463144273212
aF1150.0966674103847
aF1211.4619428306019
aF999.6056531078941
aF819.4555504190325
aF998.8369872316189
aF1006.0761019073145
aF1289.7393370958234
aF1418.5331557444938
aF1189.1764382481815
aF861.7488121328025
aF998.2939437160683
aF1044.072477297752
aF1103.8908531627649
aF476.377506607288
aF1047.0599756495576
aF949.7340833575028
aF851.0187770789724
aF1586.7670339736885
aF999.6201727199959
aF1289.9035704000378
aF810.8788090079589
aF1417.4999031274624
aF483.6480937672169
aF722.0174706201361
aF1629.6733576510062
aF998.9752032485787
aF832.3052596923962
aF669.8950623115319
aF1770.3681282417529
aF942.9243363983525
aF1116.4455438306966
aF892.5004222636948
aF847.517487374206
aF1699.4917216724532
aF1674.2477766341403
aF563.7135726814394
aF932.5965607323681
aF1396.1311506079062
aF944.0781062110947
aF511.63137623625477
aF1012.5932807891014
aF734.4370659850825
aF1197.295140597101
aF906.8688103507874
aF725.8144451172135
aF853.7936047749786
aF908.7865468115399
aF951.9846447036056
aF1347.5652440499857
aF1142.5310207329776
aF654.5110301752458
aF1521.6511689716954
aF614.949002412928
aF849.547976297355
aF595.8924638010278
aF810.0735880185565
aF997.0368700984594
aF1183.4166165280178
aF1505.8908314096243
aF904.6091794287555
aF978.4776092139866
aF1535.7364062207175
aF936.8064933270844
aF933.8143533548512
aF467.4052971789922
aF1026.5612410955703
aF831.2730394766949
aF1196.3193833155312
aF802.0770479590753
aF1747.4003890864496
aF1523.7053342214645
aF715.321394063451
aF984.1266191977579
aF1273.5652039650527
aF1090.0649958361869
aF790.7518862976765
aF1597.7413907191635
aF1111.2749042502237
aF975.4596168737556
aF1505.6434629986893
aF999.3677757928067
aF959.8419517620877
aF587.3466929158667
aF949.6392366870001
aF1598.7714033838831
aF1066.5456964559212
aF1231.306740121851
aF934.7518742184161
aF1275.5466739827843
aF740.6996306531148
aF935.0725575123165
aF625.2113782804734
aF1040.4549145706976
aF999.9999999254942
aF744.7044553974749
aF1074.5715581918384
aF1750.6380856335918
aF996.556804459422
aF847.1422298600276
aF884.1283500443319
aF1308.724960625197
aF1559.8861330296124
aF1129.8285900511555
aF1494.4601489743568
aF718.6165571043058
aF1173.491975316544
aF1734.8881149554027
aF1738.7935440929436
aF1089.3816366656336
aF1326.3565560769232
aF550.9246813044257
aF1257.3622438499565
aF888.1530100448942
aF652.0759460052908
aF418.4808945407086
aF664.3752708723619
aF873.2421911596704
aF1021.7946904769877
aF757.3851493936394
aF783.1489123942997
aF557.3976942873428
aF790.6945817551783
aF1009.513475703566
aF1226.3011692947282
aF694.6243165652303
aF996.1571267776471
aF1383.5508653495892
aF1130.0151123946162
aF1131.1822953789015
aF1792.3196323872326
aF680.3704855722227
aF1167.332497960717
aF1519.2868924058807
aF786.7116056863614
aF582.3345415094777
aF1094.196838905581
aF550.2440680006363
aF1068.1675487614189
aF1108.6383522395656
aF1444.2806025991804
aF1025.746769400915
aF1467.8167450419007
aF757.9948723826187
aF1044.2863852455284
aF815.3563717853652
aF1596.7057503899875
aF427.17189418140487
aF1623.4819680758128
aF871.8240308785762
aF996.3539892362828
aF976.9992857926744
aF1241.2139763743255
aF1009.1782080553738
aF511.0194254782387
aF1130.718563824575
aF988.3168407736006
aF724.9066661175331
aF1417.6601363350135
aF660.2100837296755
aF840.3433294073435
aF1014.634454676306
aF784.5338769540681
aF1309.822530165638
aF738.2479213173181
aF1069.5016355647397
aF1178.042725371923
aF953.3384449999401
aF872.3119135915625
aF934.9706988219158
aF961.4730288438908
aF525.9297377146582
aF729.8210189881969
aF1181.8904401627185
aF1669.4148095939709
aF1010.9030369230243
aF910.208176122462
aF810.2317724798111
aF992.7476801136343
aF953.9812987200522
aF947.7192032230679
aF711.9751833379565
aF1444.4238365073365
aF933.5542687158517
aF874.3739066810402
aF1054.2081185735033
aF697.0868741005362
aF894.564970530077
aF997.8641222799081
aF934.971131425662
aF1685.0989714182842
aF957.9359897777654
aF1199.279286050551
aF999.5039366853284
atp2
.