((lp0
I1
aI1
aI1
aI1
aI1
aI1
aI1
aI1
aI1
aI1
aI1
aI1
aI1
aI1
aI1
aI1
aI1
aI1
aI1
aI1
aI1
aI1
aI1
aI1
aI1
aI1
aI1
aI1
aI1
aI1
aI1
aI1
aI1
aI1
aI1
aI1
aI1
aI1
aI1
aI1
aI1
aI1
aI1
aI1
aI1
aI1
aI1
aI1
aI1
aI1
aI1
aI1
aI1
aI1
aI1
aI1
aI1
aI1
aI1
aI1
aI1
aI1
aI1
aI1
aI1
aI1
aI1
aI1
aI1
aI1
aI1
aI1
aI1
aI1
aI1
aI1
aI1
aI1
aI1
aI1
aI1
aI1
aI1
aI1
aI1
aI1
aI1
aI1
aI1
aI1
aI1
aI1
aI1
aI1
aI1
aI1
aI1
aI1
aI1
aI1
aI1
aI1
aI1
aI1
aI1
aI1
aI1
aI1
aI1
aI1
aI1
aI1
aI1
aI1
aI1
aI1
aI1
aI1
aI1
aI1
aI1
aI1
aI1
aI1
aI1
aI1
aI1
aI1
aI1
aI1
aI1
aI1
aI1
aI1
aI1
aI1
aI1
aI1
aI1
aI1
aI1
aI1
aI1
aI1
aI1
aI1
aI1
aI1
aI1
aI1
aI1
aI1
aI1
aI1
aI1
aI1
aI1
aI1
aI1
aI1
aI1
aI1
aI1
aI1
aI1
aI1
aI1
aI1
aI1
aI1
aI1
aI1
aI1
aI1
aI1
aI1
aI1
aI1
aI1
aI1
aI1
aI1
aI1
aI1
aI1
aI1
aI1
aI1
aI1
aI1
aI1
aI1
aI1
aI1
aI1
aI1
aI1
aI1
aI1
aI1
aI1
aI1
aI1
aI1
aI1
aI1
aI1
aI1
aI1
aI1
aI1
aI1
aI1
aI1
aI1
aI1
aI1
aI1
aI1
aI1
aI1
aI1
aI1
aI1
aI1
aI1
aI1
aI1
aI1
aI1
aI1
aI1
aI1
aI1
aI1
aI1
aI1
aI1
aI1
aI1
aI1
aI1
aI1
aI1
aI1
aI1
aI1
aI1
aI1
aI1
aI1
aI1
aI1
aI1
aI1
aI1
aI1
aI1
aI1
aI1
aI1
aI1
aI1
aI1
aI1
aI1
aI1
aI1
aI1
aI1
aI1
aI1
aI1
aI1
aI1
aI1
aI1
aI1
aI1
aI1
aI1
aI1
aI1
aI1
aI1
aI1
aI1
aI1
aI1
aI1
aI1
aI1
aI1
aI1
aI1
aI1
aI1
aI1
aI1
aI1
aI1
aI1
aI1
aI1
aI1
aI1
aI1
aI1
aI1
aI1
aI1
aI1
aI1
aI1
aI1
aI1
aI1
aI1
aI1
aI1
aI1
aI1
aI1
aI1
aI1
aI1
aI1
aI1
aI1
aI1
aI1
aI1
aI1
aI1
aI1
aI1
aI1
aI1
aI1
aI1
aI1
aI1
aI1
aI1
aI1
aI1
aI1
aI1
aI1
aI1
aI1
aI1
aI1
aI1
aI1
aI1
aI1
aI1
aI1
aI1
aI1
aI1
aI1
aI1
aI1
aI1
aI1
aI1
aI1
aI1
aI1
aI1
aI1
aI1
aI1
aI1
aI1
aI1
aI1
aI1
aI1
aI1
aI1
aI1
aI1
aI1
aI1
aI1
aI1
aI1
aI1
aI1
aI1
aI1
aI1
aI1
aI1
aI1
aI1
aI1
aI1
aI1
aI1
aI1
aI1
aI1
aI1
aI1
aI1
aI1
aI1
aI1
aI1
aI1
aI1
aI1
aI1
aI1
aI1
aI1
aI1
aI1
aI1
aI1
aI1
aI1
aI1
aI1
aI1
aI1
aI1
aI1
aI1
aI1
aI1
aI1
aI1
aI1
aI1
aI1
aI1
aI1
aI1
aI1
aI1
aI1
aI1
aI1
aI1
aI1
aI1
aI1
aI1
aI1
aI1
aI1
aI1
aI1
aI1
aI1
aI1
aI1
aI1
aI1
aI1
aI1
aI1
aI1
aI1
aI1
aI1
aI1
aI1
aI1
aI1
aI1
aI1
aI1
aI1
aI1
aI1
aI1
aI1
aI1
aI1
aI1
aI1
aI1
aI1
aI1
aI1
aI1
aI1
aI1
aI1
aI1
aI1
aI1
aI1
aI1
aI1
aI1
aI1
aI1
aI1
aI1
aI1
aI1
aI1
aI1
aI1
aI1
aI1
aI1
aI1
aI1
aI1
aI1
aI1
aI1
aI1
aI1
aI1
aI1
aI1
aI1
aI1
aI1
aI1
aI1
aI1
aI1
aI1
aI1
aI1
aI1
aI1
aI1
aI1
aI1
aI1
aI1
aI1
aI1
aI1
aI1
aI1
aI1
aI1
aI1
aI1
aI1
aI1
aI1
aI1
aI1
aI1
aI1
aI1
aI1
aI1
aI1
aI1
aI1
aI1
aI1
aI1
aI1
aI1
aI1
aI1
aI1
aI1
aI1
aI1
aI1
aI1
aI1
aI1
aI1
aI1
aI1
aI1
aI1
aI1
aI1
aI1
aI1
aI1
aI1
aI1
aI1
aI1
aI1
aI1
aI1
aI1
aI1
aI1
aI1
aI1
aI1
aI1
aI1
aI1
aI1
aI1
aI1
aI1
aI1
aI1
aI1
aI1
aI1
aI1
aI1
aI1
aI1
aI1
aI1
aI1
aI1
aI1
aI1
aI1
aI1
aI1
aI1
aI1
aI1
aI1
aI1
aI1
aI1
aI1
aI1
aI1
aI1
aI1
aI1
aI1
aI1
aI1
aI1
aI1
aI1
aI1
aI1
aI1
aI1
aI1
aI1
aI1
aI1
aI1
aI1
aI1
aI1
aI1
aI1
aI1
aI1
aI1
aI1
aI1
aI1
aI1
aI1
aI1
aI1
aI1
aI1
aI1
aI1
aI1
aI1
aI1
aI1
aI1
aI1
aI1
aI1
aI1
aI1
aI1
aI1
aI1
aI1
aI1
aI1
aI1
aI1
aI1
aI1
aI1
aI1
aI1
aI1
aI1
aI1
aI1
aI1
aI1
aI1
aI1
aI1
aI1
aI1
aI1
aI1
aI1
aI1
aI1
aI1
aI1
aI1
aI1
aI1
aI1
aI1
aI1
aI1
aI1
aI1
aI1
aI1
aI1
aI1
aI1
aI1
aI1
aI1
aI1
aI1
aI1
aI1
aI1
aI1
aI1
aI1
aI1
aI1
aI1
aI1
aI1
aI1
aI1
aI1
aI1
aI1
aI1
aI1
aI1
aI1
aI1
aI1
aI1
aI1
aI1
aI1
aI1
aI1
aI1
aI1
aI1
aI1
aI1
aI1
aI1
aI1
aI1
aI1
aI1
aI1
aI1
aI1
aI1
aI1
aI1
aI1
aI1
aI1
aI1
aI1
aI1
aI1
aI1
aI1
aI1
aI1
aI1
aI1
aI1
aI1
aI1
aI1
aI1
aI1
aI1
aI1
aI1
aI1
aI1
aI1
aI1
aI1
aI1
aI1
aI1
aI1
aI1
aI1
aI1
aI1
aI1
aI1
aI1
aI1
aI1
aI1
aI1
aI1
aI1
aI1
aI1
aI1
aI1
aI1
aI1
aI1
aI1
aI1
aI1
aI1
aI1
aI1
aI1
aI1
aI1
aI1
aI1
aI1
aI1
aI1
aI1
aI1
aI1
aI1
aI1
aI1
aI1
aI1
aI1
aI1
aI1
aI1
aI1
aI1
aI1
aI1
aI1
aI1
aI1
aI1
aI1
aI1
aI1
aI1
aI1
aI1
aI1
aI1
aI1
aI1
aI1
aI1
aI1
aI1
aI1
aI1
aI1
aI1
aI1
aI1
aI1
aI1
aI1
aI1
aI1
aI1
aI1
aI1
aI1
aI1
aI1
aI1
aI1
aI1
aI1
aI1
aI1
aI1
aI1
aI1
aI1
aI1
aI1
aI1
aI1
aI1
aI1
aI1
aI1
aI1
aI1
aI1
aI1
aI1
aI1
aI1
aI1
aI1
aI1
aI1
aI1
aI1
aI1
aI1
aI1
aI1
aI1
aI1
aI1
aI1
aI1
aI1
aI1
aI1
aI1
aI1
aI1
aI1
aI1
aI1
aI1
aI1
aI1
aI1
aI1
aI1
aI1
aI1
aI1
aI1
aI1
aI1
aI1
aI1
aI1
aI1
aI1
aI1
aI1
aI1
aI1
aI1
aI1
aI1
aI1
aI1
aI1
aI1
aI1
aI1
aI1
aI1
aI1
aI1
aI1
aI1
aI1
aI1
aI1
aI1
aI1
aI1
aI1
aI1
aI1
aI1
aI1
aI1
aI1
aI1
aI1
aI1
aI1
aI1
aI1
aI1
aI1
aI1
aI1
aI1
aI1
aI1
aI1
aI1
aI1
aI1
aI1
aI1
aI1
aI1
aI1
aI1
aI1
aI1
aI1
aI1
aI1
aI1
aI1
aI1
aI1
aI1
aI1
aI1
aI1
aI1
aI1
aI1
aI1
aI1
aI1
aI1
aI1
aI1
aI1
aI1
aI1
aI1
aI1
aI1
aI1
aI1
aI1
aI1
aI1
aI1
aI1
aI1
aI1
aI1
aI1
aI1
aI1
aI1
aI1
aI1
aI1
aI1
aI1
aI1
aI1
aI1
aI1
aI1
aI1
aI1
aI1
aI1
aI1
aI1
aI1
aI1
aI1
aI1
aI1
aI1
aI1
aI1
aI1
aI1
aI1
aI1
aI1
aI1
aI1
aI1
aI1
aI1
aI1
aI1
aI1
aI1
aI1
aI1
aI1
aI1
aI1
aI1
aI1
aI1
aI1
aI1
aI1
aI1
aI1
aI1
aI1
aI1
aI1
aI1
aI1
aI1
aI1
aI1
aI1
aI1
aI1
aI1
aI1
aI1
aI1
aI1
aI1
aI1
aI1
aI1
aI1
aI1
aI1
aI1
aI1
aI1
aI1
aI1
aI1
aI1
aI1
aI1
aI1
aI1
aI1
aI1
aI1
aI1
aI1
aI1
aI1
aI1
aI1
aI1
aI1
aI1
aI1
aI1
aI1
aI1
aI1
aI1
aI1
aI1
aI1
aI1
aI1
aI1
aI1
aI1
aI1
aI1
aI1
aI1
aI1
aI1
aI1
aI1
aI1
aI1
aI1
aI1
aI1
aI1
aI1
aI1
aI1
aI1
aI1
aI1
aI1
aI1
aI1
aI1
aI1
aI1
aI1
aI1
aI1
aI1
aI1
aI1
aI1
aI1
aI1
aI1
aI1
aI1
aI1
aI1
aI1
aI1
aI1
aI1
aI1
aI1
aI1
aI1
aI1
aI1
aI1
aI1
aI1
aI1
aI1
aI1
aI1
aI1
aI1
aI1
aI1
aI1
aI1
aI1
aI1
aI1
aI1
aI1
aI1
aI1
aI1
aI1
aI1
aI1
aI1
aI1
aI1
aI1
aI1
aI1
aI1
aI1
aI1
aI1
aI1
aI1
aI1
aI1
aI1
aI1
aI1
aI1
aI1
aI1
aI1
aI1
aI1
aI1
aI1
aI1
aI1
aI1
aI1
aI1
aI1
aI1
aI1
aI1
aI1
aI1
aI1
aI1
aI1
aI1
aI1
aI1
aI1
aI1
aI1
aI1
aI1
aI1
aI1
aI1
aI1
aI1
aI1
aI1
aI1
aI1
aI1
aI1
aI1
aI1
aI1
aI1
aI1
aI1
aI1
aI1
aI1
aI1
aI1
aI1
aI1
aI1
aI1
aI1
aI1
aI1
aI1
aI1
aI1
aI1
aI1
aI1
aI1
aI1
aI1
aI1
aI1
aI1
aI1
aI1
aI1
aI1
aI1
aI1
aI1
aI1
aI1
aI1
aI1
aI1
aI1
aI1
aI1
aI1
aI1
aI1
aI1
aI1
aI1
aI1
aI1
aI1
aI1
aI1
aI1
aI1
aI1
aI1
aI1
aI1
aI1
aI1
aI1
aI1
aI1
aI1
aI1
aI1
aI1
aI1
aI1
aI1
aI1
aI1
aI1
aI1
aI1
aI1
aI1
aI1
aI1
aI1
aI1
aI1
aI1
aI1
aI1
aI1
aI1
aI1
aI1
aI1
aI1
aI1
aI1
aI1
aI1
aI1
aI1
aI1
aI1
aI1
aI1
aI1
aI1
aI1
aI1
aI1
aI1
aI1
aI1
aI1
aI1
aI1
aI1
aI1
aI1
aI1
aI1
aI1
aI1
aI1
aI1
aI1
aI1
aI1
aI1
aI1
aI1
aI1
aI1
aI1
aI1
aI1
aI1
aI1
aI1
aI1
aI1
aI1
aI1
aI1
aI1
aI1
aI1
aI1
aI1
aI1
aI1
aI1
aI1
aI1
aI1
aI1
aI1
aI1
aI1
aI1
aI1
aI1
aI1
aI1
aI1
aI1
aI1
aI1
aI1
aI1
aI1
aI1
aI1
aI1
aI1
aI1
aI1
aI1
aI1
aI1
aI1
aI1
aI1
aI1
aI1
aI1
aI1
aI1
aI1
aI1
aI1
aI1
aI1
aI1
aI1
aI1
aI1
aI1
aI1
aI1
aI1
aI1
aI1
aI1
aI1
aI1
aI1
aI1
aI1
aI1
aI1
aI1
aI1
aI1
aI1
aI1
aI1
aI1
aI1
aI1
aI1
aI1
aI1
aI1
aI1
aI1
aI1
aI1
aI1
aI1
aI1
aI1
aI1
aI1
aI1
aI1
aI-1
aI-1
aI-1
aI-1
aI-1
aI-1
aI-1
aI-1
aI-1
aI-1
aI-1
aI-1
aI-1
aI-1
aI-1
aI-1
aI-1
aI-1
aI-1
aI-1
aI-1
aI-1
aI-1
aI-1
aI-1
aI-1
aI-1
aI-1
aI-1
aI-1
aI-1
aI-1
aI-1
aI-1
aI-1
aI-1
aI-1
aI-1
aI-1
aI-1
aI-1
aI-1
aI-1
aI-1
aI-1
aI-1
aI-1
aI-1
aI-1
aI-1
aI-1
aI-1
aI-1
aI-1
aI-1
aI-1
aI-1
aI-1
aI-1
aI-1
aI-1
aI-1
aI-1
aI-1
aI-1
aI-1
aI-1
aI-1
aI-1
aI-1
aI-1
aI-1
aI-1
aI-1
aI-1
aI-1
aI-1
aI-1
aI-1
aI-1
aI-1
aI-1
aI-1
aI-1
aI-1
aI-1
aI-1
aI-1
aI-1
aI-1
aI-1
aI-1
aI-1
aI-1
aI-1
aI-1
aI-1
aI-1
aI-1
aI-1
aI-1
aI-1
aI-1
aI-1
aI-1
aI-1
aI-1
aI-1
aI-1
aI-1
aI-1
aI-1
aI-1
aI-1
aI-1
aI-1
aI-1
aI-1
aI-1
aI-1
aI-1
aI-1
aI-1
aI-1
aI-1
aI-1
aI-1
aI-1
aI-1
aI-1
aI-1
aI-1
aI-1
aI-1
aI-1
aI-1
aI-1
aI-1
aI-1
aI-1
aI-1
aI-1
aI-1
aI-1
aI-1
aI-1
aI-1
aI-1
aI-1
aI-1
aI-1
aI-1
aI-1
aI-1
aI-1
aI-1
aI-1
aI-1
aI-1
aI-1
aI-1
aI-1
aI-1
aI-1
aI-1
aI-1
aI-1
aI-1
aI-1
aI-1
aI-1
aI-1
aI-1
aI-1
aI-1
aI-1
aI-1
aI-1
aI-1
aI-1
aI-1
aI-1
aI-1
aI-1
aI-1
aI-1
aI-1
aI-1
aI-1
aI-1
aI-1
aI-1
aI-1
aI-1
aI-1
aI-1
aI-1
aI-1
aI-1
aI-1
aI-1
aI-1
aI-1
aI-1
aI-1
aI-1
aI-1
aI-1
aI-1
aI-1
aI-1
aI-1
aI-1
aI-1
aI-1
aI-1
aI-1
aI-1
aI-1
aI-1
aI-1
aI-1
aI-1
aI-1
aI-1
aI-1
aI-1
aI-1
aI-1
aI-1
aI-1
aI-1
aI-1
aI-1
aI-1
aI-1
aI-1
aI-1
aI-1
aI-1
aI-1
aI-1
aI-1
aI-1
aI-1
aI-1
aI-1
aI-1
aI-1
aI-1
aI-1
aI-1
aI-1
aI-1
aI-1
aI-1
aI-1
aI-1
aI-1
aI-1
aI-1
aI-1
aI-1
aI-1
aI-1
aI-1
aI-1
aI-1
aI-1
aI-1
aI-1
aI-1
aI-1
aI-1
aI-1
aI-1
aI-1
aI-1
aI-1
aI-1
aI-1
aI-1
aI-1
aI-1
aI-1
aI-1
aI-1
aI-1
aI-1
aI-1
aI-1
aI-1
aI-1
aI-1
aI-1
aI-1
aI-1
aI-1
aI-1
aI-1
aI-1
aI-1
aI-1
aI-1
aI-1
aI-1
aI-1
aI-1
aI-1
aI-1
aI-1
aI-1
aI-1
aI-1
aI-1
aI-1
aI-1
aI-1
aI-1
aI-1
aI-1
aI-1
aI-1
aI-1
aI-1
aI-1
aI-1
aI-1
aI-1
aI-1
aI-1
aI-1
aI-1
aI-1
aI-1
aI-1
aI-1
aI-1
aI-1
aI-1
aI-1
aI-1
aI-1
aI-1
aI-1
aI-1
aI-1
aI-1
aI-1
aI-1
aI-1
aI-1
aI-1
aI-1
aI-1
aI-1
aI-1
aI-1
aI-1
aI-1
aI-1
aI-1
aI-1
aI-1
aI-1
aI-1
aI-1
aI-1
aI-1
aI-1
aI-1
aI-1
aI-1
aI-1
aI-1
aI-1
aI-1
aI-1
aI-1
aI-1
aI-1
aI-1
aI-1
aI-1
aI-1
aI-1
aI-1
aI-1
aI-1
aI-1
aI-1
aI-1
aI-1
aI-1
aI-1
aI-1
aI-1
aI-1
aI-1
aI-1
aI-1
aI-1
aI-1
aI-1
aI-1
aI-1
aI-1
aI-1
aI-1
aI-1
aI-1
aI-1
aI-1
aI-1
aI-1
aI-1
aI-1
aI-1
aI-1
aI-1
aI-1
aI-1
aI-1
aI-1
aI-1
aI-1
aI-1
aI-1
aI-1
aI-1
aI-1
aI-1
aI-1
aI-1
aI-1
aI-1
aI-1
aI-1
aI-1
aI-1
aI-1
aI-1
aI-1
aI-1
aI-1
aI-1
aI-1
aI-1
aI-1
aI-1
aI-1
aI-1
aI-1
aI-1
aI-1
aI-1
aI-1
aI-1
aI-1
aI-1
aI-1
aI-1
aI-1
aI-1
aI-1
aI-1
aI-1
aI-1
aI-1
aI-1
aI-1
aI-1
aI-1
aI-1
aI-1
aI-1
aI-1
aI-1
aI-1
aI-1
aI-1
aI-1
aI-1
aI-1
aI-1
aI-1
aI-1
aI-1
aI-1
aI-1
aI-1
aI-1
aI-1
aI-1
aI-1
aI-1
aI-1
aI-1
aI-1
aI-1
aI-1
aI-1
aI-1
aI-1
aI-1
aI-1
aI-1
aI-1
aI-1
aI-1
aI-1
aI-1
aI-1
aI-1
aI-1
aI-1
aI-1
aI-1
aI-1
aI-1
aI-1
aI-1
aI-1
aI-1
aI-1
aI-1
aI-1
aI-1
aI-1
aI-1
aI-1
aI-1
aI-1
aI-1
aI-1
aI-1
aI-1
aI-1
aI-1
aI-1
aI-1
aI-1
aI-1
aI-1
aI-1
aI-1
aI-1
aI-1
aI-1
aI-1
aI-1
aI-1
aI-1
aI-1
aI-1
aI-1
aI-1
aI-1
aI-1
aI-1
aI-1
aI-1
aI-1
aI-1
aI-1
aI-1
aI-1
aI-1
aI-1
aI-1
aI-1
aI-1
aI-1
aI-1
aI-1
aI-1
aI-1
aI-1
aI-1
aI-1
aI-1
aI-1
aI-1
aI-1
aI-1
aI-1
aI-1
aI-1
aI-1
aI-1
aI-1
aI-1
aI-1
aI-1
aI-1
aI-1
aI-1
aI-1
aI-1
aI-1
aI-1
aI-1
aI-1
aI-1
aI-1
aI-1
aI-1
aI-1
aI-1
aI-1
aI-1
aI-1
aI-1
aI-1
aI-1
aI-1
aI-1
aI-1
aI-1
aI-1
aI-1
aI-1
aI-1
aI-1
aI-1
aI-1
aI-1
aI-1
aI-1
aI-1
aI-1
aI-1
aI-1
aI-1
aI-1
aI-1
aI-1
aI-1
aI-1
aI-1
aI-1
aI-1
aI-1
aI-1
aI-1
aI-1
aI-1
aI-1
aI-1
aI-1
aI-1
aI-1
aI-1
aI-1
aI-1
aI-1
aI-1
aI-1
aI-1
aI-1
aI-1
aI-1
aI-1
aI-1
aI-1
aI-1
aI-1
aI-1
aI-1
aI-1
aI-1
aI-1
aI-1
aI-1
aI-1
aI-1
aI-1
aI-1
aI-1
aI-1
aI-1
aI-1
aI-1
aI-1
aI-1
aI-1
aI-1
aI-1
aI-1
aI-1
aI-1
aI-1
aI-1
aI-1
aI-1
aI-1
aI-1
aI-1
aI-1
aI-1
aI-1
aI-1
aI-1
aI-1
aI-1
aI-1
aI-1
aI-1
aI-1
aI-1
aI-1
aI-1
aI-1
aI-1
aI-1
aI-1
aI-1
aI-1
aI-1
aI-1
aI-1
aI-1
aI-1
aI-1
aI-1
aI-1
aI-1
aI-1
aI-1
aI-1
aI-1
aI-1
aI-1
aI-1
aI-1
aI-1
aI-1
aI-1
aI-1
aI-1
aI-1
aI-1
aI-1
aI-1
aI-1
aI-1
aI-1
aI-1
aI-1
aI-1
aI-1
aI-1
aI-1
aI-1
aI-1
aI-1
aI-1
aI-1
aI-1
aI-1
aI-1
aI-1
aI-1
aI-1
aI-1
aI-1
aI-1
aI-1
aI-1
aI-1
aI-1
aI-1
aI-1
aI-1
aI-1
aI-1
aI-1
aI-1
aI-1
aI-1
aI-1
aI-1
aI-1
aI-1
aI-1
aI-1
aI-1
aI-1
aI-1
aI-1
aI-1
aI-1
aI-1
aI-1
aI-1
aI-1
aI-1
aI-1
aI-1
aI-1
aI-1
aI-1
aI-1
aI-1
aI-1
aI-1
aI-1
aI-1
aI-1
aI-1
aI-1
aI-1
aI-1
aI-1
aI-1
aI-1
aI-1
aI-1
aI-1
aI-1
aI-1
aI-1
aI-1
aI-1
aI-1
aI-1
aI-1
aI-1
aI-1
aI-1
aI-1
aI-1
aI-1
aI-1
aI-1
aI-1
aI-1
aI-1
aI-1
aI-1
aI-1
aI-1
aI-1
aI-1
aI-1
aI-1
aI-1
aI-1
aI-1
aI-1
aI-1
aI-1
aI-1
aI-1
aI-1
aI-1
aI-1
aI-1
aI-1
aI-1
aI-1
aI-1
aI-1
aI-1
aI-1
aI-1
aI-1
aI-1
aI-1
aI-1
aI-1
aI-1
aI-1
aI-1
aI-1
aI-1
aI-1
aI-1
aI-1
aI-1
aI-1
aI-1
aI-1
aI-1
aI-1
aI-1
aI-1
aI-1
aI-1
aI-1
aI-1
aI-1
aI-1
aI-1
aI-1
aI-1
aI-1
aI-1
aI-1
aI-1
aI-1
aI-1
aI-1
aI-1
aI-1
aI-1
aI-1
aI-1
aI-1
aI-1
aI-1
aI-1
aI-1
aI-1
aI-1
aI-1
aI-1
aI-1
aI-1
aI-1
aI-1
aI-1
aI-1
aI-1
aI-1
aI-1
aI-1
aI-1
aI-1
aI-1
aI-1
aI-1
aI-1
aI-1
aI-1
aI-1
aI-1
aI-1
aI-1
aI-1
aI-1
aI-1
aI-1
aI-1
aI-1
aI-1
aI-1
aI-1
aI-1
aI-1
aI-1
aI-1
aI-1
aI-1
aI-1
aI-1
aI-1
aI-1
aI-1
aI-1
aI-1
aI-1
aI-1
aI-1
aI-1
aI-1
aI-1
aI-1
aI-1
aI-1
aI-1
aI-1
aI-1
aI-1
aI-1
aI-1
aI-1
aI-1
aI-1
aI-1
aI-1
aI-1
aI-1
aI-1
aI-1
aI-1
aI-1
aI-1
aI-1
aI-1
aI-1
aI-1
aI-1
aI-1
aI-1
aI-1
aI-1
aI-1
aI-1
aI-1
aI-1
aI-1
aI-1
aI-1
aI-1
aI-1
aI-1
aI-1
aI-1
aI-1
aI-1
aI-1
aI-1
aI-1
aI-1
aI-1
aI-1
aI-1
aI-1
aI-1
aI-1
aI-1
aI-1
aI-1
aI-1
aI-1
aI-1
aI-1
aI-1
aI-1
aI-1
aI-1
aI-1
aI-1
aI-1
aI-1
aI-1
aI-1
aI-1
aI-1
aI-1
aI-1
aI-1
aI-1
aI-1
aI-1
aI-1
aI-1
aI-1
aI-1
aI-1
aI-1
aI-1
aI-1
aI-1
aI-1
aI-1
aI-1
aI-1
aI-1
aI-1
aI-1
aI-1
aI-1
aI-1
aI-1
aI-1
aI-1
aI-1
aI-1
aI-1
aI-1
aI-1
aI-1
aI-1
aI-1
aI-1
aI-1
aI-1
aI-1
aI-1
aI-1
aI-1
aI-1
aI-1
aI-1
aI-1
aI-1
aI-1
aI-1
aI-1
aI-1
aI-1
aI-1
aI-1
aI-1
aI-1
aI-1
aI-1
aI-1
aI-1
aI-1
aI-1
aI-1
aI-1
aI-1
aI-1
aI-1
aI-1
aI-1
aI-1
aI-1
aI-1
aI-1
aI-1
aI-1
aI-1
aI-1
aI-1
aI-1
aI-1
aI-1
aI-1
aI-1
aI-1
aI-1
aI-1
aI-1
aI-1
aI-1
aI-1
aI-1
aI-1
aI-1
aI-1
aI-1
aI-1
aI-1
aI-1
aI-1
aI-1
aI-1
aI-1
aI-1
aI-1
aI-1
aI-1
aI-1
aI-1
aI-1
aI-1
aI-1
aI-1
aI-1
aI-1
aI-1
aI-1
aI-1
aI-1
aI-1
aI-1
aI-1
aI-1
aI-1
aI-1
aI-1
aI-1
aI-1
aI-1
aI-1
aI-1
aI-1
aI-1
aI-1
aI-1
aI-1
aI-1
aI-1
aI-1
aI-1
aI-1
aI-1
aI-1
aI-1
aI-1
aI-1
aI-1
aI-1
aI-1
aI-1
aI-1
aI-1
aI-1
aI-1
aI-1
aI-1
aI-1
aI-1
aI-1
aI-1
aI-1
aI-1
aI-1
aI-1
aI-1
aI-1
aI-1
aI-1
aI-1
aI-1
aI-1
aI-1
aI-1
aI-1
aI-1
aI-1
aI-1
aI-1
aI-1
aI-1
aI-1
aI-1
aI-1
aI-1
aI-1
aI-1
aI-1
aI-1
aI-1
aI-1
aI-1
aI-1
aI-1
aI-1
aI-1
aI-1
aI-1
aI-1
aI-1
aI-1
aI-1
aI-1
aI-1
aI-1
aI-1
aI-1
aI-1
aI-1
aI-1
aI-1
aI-1
aI-1
aI-1
aI-1
aI-1
aI-1
aI-1
aI-1
aI-1
aI-1
aI-1
aI-1
aI-1
aI-1
aI-1
aI-1
aI-1
aI-1
aI-1
aI-1
aI-1
aI-1
aI-1
aI-1
aI-1
aI-1
aI-1
aI-1
aI-1
aI-1
aI-1
aI-1
aI-1
aI-1
aI-1
aI-1
aI-1
aI-1
aI-1
aI-1
aI-1
aI-1
aI-1
aI-1
aI-1
aI-1
aI-1
aI-1
aI-1
aI-1
aI-1
aI-1
aI-1
aI-1
aI-1
aI-1
aI-1
aI-1
aI-1
aI-1
aI-1
aI-1
aI-1
aI-1
aI-1
aI-1
aI-1
aI-1
aI-1
aI-1
aI-1
aI-1
aI-1
aI-1
aI-1
aI-1
aI-1
aI-1
aI-1
aI-1
aI-1
aI-1
aI-1
aI-1
aI-1
aI-1
aI-1
aI-1
aI-1
aI-1
aI-1
aI-1
aI-1
aI-1
aI-1
aI-1
aI-1
aI-1
aI-1
aI-1
aI-1
aI-1
aI-1
aI-1
aI-1
aI-1
aI-1
aI-1
aI-1
aI-1
aI-1
aI-1
aI-1
aI-1
aI-1
aI-1
aI-1
aI-1
aI-1
aI-1
aI-1
aI-1
aI-1
aI-1
aI-1
aI-1
aI-1
aI-1
aI-1
aI-1
aI-1
aI-1
aI-1
aI-1
aI-1
aI-1
aI-1
aI-1
aI-1
aI-1
aI-1
aI-1
aI-1
aI-1
aI-1
aI-1
aI-1
aI-1
aI-1
aI-1
aI-1
aI-1
aI-1
aI-1
aI-1
aI-1
aI-1
aI-1
aI-1
aI-1
aI-1
aI-1
aI-1
aI-1
aI-1
aI-1
aI-1
aI-1
aI-1
aI-1
aI-1
aI-1
aI-1
aI-1
aI-1
aI-1
aI-1
aI-1
aI-1
aI-1
aI-1
aI-1
aI-1
aI-1
aI-1
aI-1
aI-1
aI-1
aI-1
aI-1
aI-1
aI-1
aI-1
aI-1
aI-1
aI-1
aI-1
aI-1
aI-1
aI-1
aI-1
aI-1
aI-1
aI-1
aI-1
aI-1
aI-1
aI-1
aI-1
aI-1
aI-1
aI-1
aI-1
aI-1
aI-1
aI-1
aI-1
aI-1
aI-1
aI-1
aI-1
aI-1
aI-1
aI-1
aI-1
aI-1
aI-1
aI-1
aI-1
aI-1
aI-1
aI-1
aI-1
aI-1
aI-1
aI-1
aI-1
aI-1
a(lp1
F0.4334459602832794
aF0.3597753345966339
aF0.42034369707107544
aF0.44792187213897705
aF0.40379229187965393
aF0.4925130605697632
aF0.4592199921607971
aF0.4649810492992401
aF0.5024802684783936
aF0.3958108127117157
aF0.409493625164032
aF0.41261959075927734
aF0.3992791771888733
aF0.4706037938594818
aF0.46848830580711365
aF0.3800463378429413
aF0.4500722587108612
aF0.434185266494751
aF0.3093568682670593
aF0.425186425447464
aF0.47197723388671875
aF0.44383102655410767
aF0.45993688702583313
aF0.3973928987979889
aF0.4369763433933258
aF0.4160434305667877
aF0.43083664774894714
aF0.5230957269668579
aF0.4303525984287262
aF0.4682781398296356
aF0.4117819666862488
aF0.44649505615234375
aF0.37016797065734863
aF0.4514678418636322
aF0.479308545589447
aF0.375495582818985
aF0.4387929439544678
aF0.5011076331138611
aF0.3532799184322357
aF0.43738487362861633
aF0.4528124928474426
aF0.5087137222290039
aF0.45855072140693665
aF0.5056629776954651
aF0.39737677574157715
aF0.38424384593963623
aF0.3480015695095062
aF0.4501119554042816
aF0.4855992794036865
aF0.4286813735961914
aF0.44880393147468567
aF0.41898849606513977
aF0.4022856652736664
aF0.5562556385993958
aF0.39402660727500916
aF0.3838321268558502
aF0.4220838248729706
aF0.3398571014404297
aF0.4284033179283142
aF0.44006165862083435
aF0.4644651710987091
aF0.5699102878570557
aF0.4004232883453369
aF0.46490445733070374
aF0.4090624749660492
aF0.42964643239974976
aF0.3130527138710022
aF0.35099565982818604
aF0.3313429057598114
aF0.4528103470802307
aF0.3656906187534332
aF0.42401599884033203
aF0.46373164653778076
aF0.3896454870700836
aF0.3693787753582001
aF0.4389532804489136
aF0.47187116742134094
aF0.45449599623680115
aF0.40160873532295227
aF0.3968304395675659
aF0.4574357867240906
aF0.4222365915775299
aF0.41932597756385803
aF0.41960352659225464
aF0.4547196626663208
aF0.4291822016239166
aF0.4358718991279602
aF0.4479850232601166
aF0.4035695791244507
aF0.41747531294822693
aF0.36416858434677124
aF0.4213283061981201
aF0.49963027238845825
aF0.3255223333835602
aF0.46789538860321045
aF0.34223777055740356
aF0.49741801619529724
aF0.4255048632621765
aF0.4619283378124237
aF0.6351816654205322
aF0.4252576529979706
aF0.43892139196395874
aF0.39001232385635376
aF0.3811017870903015
aF0.3670031726360321
aF0.3800322115421295
aF0.3880489766597748
aF0.4653700590133667
aF0.4964236915111542
aF0.40732258558273315
aF0.4611612856388092
aF0.45896899700164795
aF0.47991782426834106
aF0.4401513338088989
aF0.40183746814727783
aF0.47376877069473267
aF0.5568205118179321
aF0.424059122800827
aF0.3380228579044342
aF0.4242292046546936
aF0.3462226986885071
aF0.44426602125167847
aF0.3788335621356964
aF0.46279406547546387
aF0.45881086587905884
aF0.42362579703330994
aF0.3908938467502594
aF0.35290443897247314
aF0.41878145933151245
aF0.35689035058021545
aF0.4524882435798645
aF0.39852243661880493
aF0.4168301224708557
aF0.4422183930873871
aF0.33413296937942505
aF0.4642995595932007
aF0.4387155771255493
aF0.33041438460350037
aF0.3668239116668701
aF0.34979379177093506
aF0.43850791454315186
aF0.4685669541358948
aF0.385952889919281
aF0.47191834449768066
aF0.34954020380973816
aF0.4727970361709595
aF0.4281213581562042
aF0.46962305903434753
aF0.5394434332847595
aF0.43236464262008667
aF0.3452949523925781
aF0.3620992600917816
aF0.38931968808174133
aF0.3572569489479065
aF0.4376099109649658
aF0.47136369347572327
aF0.3764197826385498
aF0.41922539472579956
aF0.5895504355430603
aF0.49142247438430786
aF0.47151896357536316
aF0.4816548228263855
aF0.4728143513202667
aF0.4235755205154419
aF0.4301884174346924
aF0.38068312406539917
aF0.4381120204925537
aF0.3694242238998413
aF0.27047204971313477
aF0.40669161081314087
aF0.3304508924484253
aF0.4410727322101593
aF0.45301541686058044
aF0.40182963013648987
aF0.43520990014076233
aF0.388894259929657
aF0.44819632172584534
aF0.4531329870223999
aF0.3703882098197937
aF0.4941357970237732
aF0.5279747247695923
aF0.49624723196029663
aF0.4532710313796997
aF0.43310782313346863
aF0.42373400926589966
aF0.4064897298812866
aF0.3462335765361786
aF0.4549439251422882
aF0.41086599230766296
aF0.37945669889450073
aF0.4007223844528198
aF0.35930052399635315
aF0.4040202796459198
aF0.42274826765060425
aF0.43289291858673096
aF0.4171655774116516
aF0.4162994921207428
aF0.4659792482852936
aF0.3895825445652008
aF0.40674617886543274
aF0.47074243426322937
aF0.4242740869522095
aF0.4360697865486145
aF0.4756857752799988
aF0.43867579102516174
aF0.3635271489620209
aF0.3670310080051422
aF0.4406296908855438
aF0.3733712434768677
aF0.3490903079509735
aF0.3344271779060364
aF0.4451456367969513
aF0.38232216238975525
aF0.3805736005306244
aF0.34652045369148254
aF0.4256536066532135
aF0.4481637477874756
aF0.41197469830513
aF0.41318559646606445
aF0.4390184283256531
aF0.47622233629226685
aF0.40545031428337097
aF0.41212043166160583
aF0.440204381942749
aF0.4363747835159302
aF0.4621093273162842
aF0.4329069256782532
aF0.499479204416275
aF0.42190873622894287
aF0.414901465177536
aF0.4389355778694153
aF0.47134825587272644
aF0.4683424234390259
aF0.3664925992488861
aF0.4192054569721222
aF0.4994141459465027
aF0.48006078600883484
aF0.45454636216163635
aF0.36962729692459106
aF0.38481661677360535
aF0.4172232449054718
aF0.395788311958313
aF0.48055499792099
aF0.38035866618156433
aF0.43434518575668335
aF0.4692511558532715
aF0.3939807415008545
aF0.35800522565841675
aF0.4839251637458801
aF0.46203696727752686
aF0.4288288354873657
aF0.46481966972351074
aF0.40090641379356384
aF0.4321877062320709
aF0.33751794695854187
aF0.4503450095653534
aF0.48271873593330383
aF0.41163700819015503
aF0.3756980299949646
aF0.40847477316856384
aF0.40573883056640625
aF0.35978591442108154
aF0.3581255078315735
aF0.3978230059146881
aF0.3916456699371338
aF0.41758814454078674
aF0.636573314666748
aF0.4791567921638489
aF0.4459739625453949
aF0.5075371265411377
aF0.504366397857666
aF0.3027947247028351
aF0.6120904684066772
aF0.38375741243362427
aF0.31796765327453613
aF0.42037367820739746
aF0.4840790629386902
aF0.5051542520523071
aF0.43865153193473816
aF0.3662984371185303
aF0.43854933977127075
aF0.41573476791381836
aF0.4689224362373352
aF0.38262608647346497
aF0.3600769340991974
aF0.4328655004501343
aF0.35424694418907166
aF0.35136884450912476
aF0.35931918025016785
aF0.2987077236175537
aF0.3660016655921936
aF0.3743920922279358
aF0.4609954059123993
aF0.4193851947784424
aF0.4346172511577606
aF0.36704105138778687
aF0.4533473551273346
aF0.42929965257644653
aF0.4953613877296448
aF0.43266212940216064
aF0.41721826791763306
aF0.4694689214229584
aF0.4305334985256195
aF0.4257964491844177
aF0.38536953926086426
aF0.4489586353302002
aF0.43008989095687866
aF0.4384382665157318
aF0.3708897531032562
aF0.43421387672424316
aF0.4485369026660919
aF0.45341551303863525
aF0.48709627985954285
aF0.44063645601272583
aF0.4263654947280884
aF0.33675017952919006
aF0.4543731212615967
aF0.5003058910369873
aF0.4497874975204468
aF0.4625568985939026
aF0.4457627832889557
aF0.43555521965026855
aF0.46108606457710266
aF0.410696804523468
aF0.39132580161094666
aF0.45259997248649597
aF0.4211432635784149
aF0.37175053358078003
aF0.46314316987991333
aF0.46047037839889526
aF0.4483768939971924
aF0.43238797783851624
aF0.46537747979164124
aF0.3760192096233368
aF0.4125809371471405
aF0.42421308159828186
aF0.3449448049068451
aF0.4157106578350067
aF0.3753873109817505
aF0.5724565386772156
aF0.45018982887268066
aF0.44350937008857727
aF0.3982173502445221
aF0.346403032541275
aF0.38704919815063477
aF0.34055548906326294
aF0.49185052514076233
aF0.41723501682281494
aF0.38832610845565796
aF0.38604554533958435
aF0.3992888927459717
aF0.3814302980899811
aF0.346979022026062
aF0.4378502070903778
aF0.43899285793304443
aF0.41746091842651367
aF0.4501144289970398
aF0.3967616558074951
aF0.3449472188949585
aF0.3599942922592163
aF0.39396238327026367
aF0.368075966835022
aF0.3799610137939453
aF0.42659255862236023
aF0.39202216267585754
aF0.39323046803474426
aF0.4528123438358307
aF0.3651762008666992
aF0.4739151895046234
aF0.39793121814727783
aF0.48402273654937744
aF0.47752127051353455
aF0.4913540780544281
aF0.46887025237083435
aF0.5330827832221985
aF0.4060935974121094
aF0.47616371512413025
aF0.4382702708244324
aF0.3696325421333313
aF0.5349473357200623
aF0.3961077332496643
aF0.43683212995529175
aF0.43615517020225525
aF0.44732075929641724
aF0.39283549785614014
aF0.4733147621154785
aF0.38451653718948364
aF0.4399028420448303
aF0.4110552668571472
aF0.4715035557746887
aF0.41666314005851746
aF0.34916335344314575
aF0.46518462896347046
aF0.4438270628452301
aF0.43339595198631287
aF0.4149526357650757
aF0.40792834758758545
aF0.44361135363578796
aF0.42811739444732666
aF0.3982432782649994
aF0.34793785214424133
aF0.5432794690132141
aF0.4349125027656555
aF0.42677047848701477
aF0.5979166030883789
aF0.25770702958106995
aF0.3401561975479126
aF0.4476504623889923
aF0.4083419144153595
aF0.44284412264823914
aF0.46816134452819824
aF0.580588161945343
aF0.5174223780632019
aF0.340183287858963
aF0.4639602303504944
aF0.5070764422416687
aF0.43330439925193787
aF0.4472079277038574
aF0.45720672607421875
aF0.4004207253456116
aF0.44880831241607666
aF0.4834749698638916
aF0.35761120915412903
aF0.41425928473472595
aF0.3109918534755707
aF0.4193709194660187
aF0.42910900712013245
aF0.3158198893070221
aF0.32943135499954224
aF0.4461551606655121
aF0.5449875593185425
aF0.4078323543071747
aF0.492585688829422
aF0.4491242468357086
aF0.47445613145828247
aF0.400765597820282
aF0.4152488708496094
aF0.3990735411643982
aF0.397781103849411
aF0.33098104596138
aF0.3834550380706787
aF0.3914223313331604
aF0.43658772110939026
aF0.4309725761413574
aF0.3982117772102356
aF0.42250940203666687
aF0.449409157037735
aF0.41981789469718933
aF0.4066621661186218
aF0.43294861912727356
aF0.4021534025669098
aF0.3903487026691437
aF0.4699316620826721
aF0.54079669713974
aF0.4262566566467285
aF0.44395527243614197
aF0.3683507740497589
aF0.35136884450912476
aF0.3934977650642395
aF0.37676337361335754
aF0.3097781538963318
aF0.4420677125453949
aF0.35023218393325806
aF0.4532492458820343
aF0.45362481474876404
aF0.46203696727752686
aF0.37940165400505066
aF0.45851877331733704
aF0.5045750737190247
aF0.41171619296073914
aF0.4509847164154053
aF0.447672963142395
aF0.4664729833602905
aF0.3746415972709656
aF0.41978830099105835
aF0.44649600982666016
aF0.42909109592437744
aF0.4555043876171112
aF0.5233853459358215
aF0.39793574810028076
aF0.454621821641922
aF0.41391870379447937
aF0.452046275138855
aF0.4523654580116272
aF0.408908873796463
aF0.29076167941093445
aF0.37921398878097534
aF0.3758460283279419
aF0.4048776626586914
aF0.48710012435913086
aF0.4304812550544739
aF0.43967559933662415
aF0.43016329407691956
aF0.48107844591140747
aF0.47810205817222595
aF0.49981889128685
aF0.41122692823410034
aF0.3428565263748169
aF0.41209107637405396
aF0.4032231271266937
aF0.5253260135650635
aF0.42602232098579407
aF0.4287931025028229
aF0.47989970445632935
aF0.4569893777370453
aF0.4237098693847656
aF0.4679871201515198
aF0.4282720386981964
aF0.3713994026184082
aF0.4130933880805969
aF0.4119342863559723
aF0.42627623677253723
aF0.41250550746917725
aF0.47692736983299255
aF0.3819117248058319
aF0.4330250918865204
aF0.48079895973205566
aF0.42757707834243774
aF0.34837663173675537
aF0.430797815322876
aF0.4543440341949463
aF0.39537176489830017
aF0.4621588885784149
aF0.3935377895832062
aF0.41315406560897827
aF0.4762846827507019
aF0.4479786157608032
aF0.4529867172241211
aF0.272468626499176
aF0.5032208561897278
aF0.4834171533584595
aF0.48150306940078735
aF0.4118949770927429
aF0.39931392669677734
aF0.45078665018081665
aF0.4802955090999603
aF0.48596227169036865
aF0.4535578787326813
aF0.3459669351577759
aF0.35618430376052856
aF0.40126049518585205
aF0.3861289918422699
aF0.4588841199874878
aF0.4019940495491028
aF0.42317572236061096
aF0.46070054173469543
aF0.4534896910190582
aF0.5045342445373535
aF0.4411987066268921
aF0.4869835078716278
aF0.38446223735809326
aF0.4126112759113312
aF0.4386342465877533
aF0.2678292691707611
aF0.4532022178173065
aF0.4821242392063141
aF0.4447547495365143
aF0.4450904428958893
aF0.43289291858673096
aF0.4424263536930084
aF0.4252830445766449
aF0.43862661719322205
aF0.4466765522956848
aF0.32608309388160706
aF0.45539143681526184
aF0.34763309359550476
aF0.45837685465812683
aF0.4624025821685791
aF0.42860352993011475
aF0.4257427752017975
aF0.43138882517814636
aF0.4480378031730652
aF0.34579211473464966
aF0.411984384059906
aF0.45089107751846313
aF0.41759562492370605
aF0.3561157286167145
aF0.4191778004169464
aF0.5129982829093933
aF0.4057922065258026
aF0.4218153953552246
aF0.4031875729560852
aF0.4193812310695648
aF0.409708172082901
aF0.36327213048934937
aF0.46741265058517456
aF0.4858452379703522
aF0.4170207977294922
aF0.40282365679740906
aF0.4101295471191406
aF0.4220724403858185
aF0.4277080297470093
aF0.4519273638725281
aF0.43062686920166016
aF0.38241127133369446
aF0.4151500463485718
aF0.4065113961696625
aF0.42274826765060425
aF0.32785144448280334
aF0.4363348186016083
aF0.4039137065410614
aF0.42718788981437683
aF0.47452810406684875
aF0.3666989207267761
aF0.4576922357082367
aF0.6421080231666565
aF0.43062207102775574
aF0.4150518476963043
aF0.3041914105415344
aF0.5208812952041626
aF0.617318868637085
aF0.3952312767505646
aF0.3723487854003906
aF0.32013776898384094
aF0.46833181381225586
aF0.4695472717285156
aF0.3537002503871918
aF0.4237098693847656
aF0.6210170984268188
aF0.3670540153980255
aF0.40635785460472107
aF0.40649640560150146
aF0.4448484778404236
aF0.38405442237854004
aF0.42925092577934265
aF0.41343533992767334
aF0.46635279059410095
aF0.44141995906829834
aF0.3596112132072449
aF0.3926503360271454
aF0.4768902063369751
aF0.4365500509738922
aF0.4258052110671997
aF0.4328700006008148
aF0.4193018972873688
aF0.3700477182865143
aF0.5545458197593689
aF0.408908873796463
aF0.42676958441734314
aF0.43878570199012756
aF0.4778773784637451
aF0.44747069478034973
aF0.4740191400051117
aF0.34551745653152466
aF0.44026222825050354
aF0.51068514585495
aF0.39801445603370667
aF0.47219669818878174
aF0.4461376667022705
aF0.41140997409820557
aF0.35040244460105896
aF0.31394392251968384
aF0.43157052993774414
aF0.3795473575592041
aF0.4123707711696625
aF0.41042816638946533
aF0.3998607397079468
aF0.37294161319732666
aF0.46093371510505676
aF0.4558912515640259
aF0.4166233539581299
aF0.40092840790748596
aF0.4607018232345581
aF0.40530335903167725
aF0.3887389302253723
aF0.422566294670105
aF0.4707067906856537
aF0.45188087224960327
aF0.4822447896003723
aF0.5085592269897461
aF0.4690530002117157
aF0.3799036741256714
aF0.3725758194923401
aF0.48230162262916565
aF0.34105074405670166
aF0.39231452345848083
aF0.39644676446914673
aF0.45078980922698975
aF0.36333468556404114
aF0.38506484031677246
aF0.48178210854530334
aF0.40827199816703796
aF0.4012225270271301
aF0.4292774498462677
aF0.39720720052719116
aF0.4452939033508301
aF0.4254531264305115
aF0.4254857897758484
aF0.3980390131473541
aF0.40389201045036316
aF0.4463617503643036
aF0.447251558303833
aF0.4272041320800781
aF0.4220183193683624
aF0.43911096453666687
aF0.47105908393859863
aF0.31514081358909607
aF0.4356503486633301
aF0.34232965111732483
aF0.4668228030204773
aF0.43659454584121704
aF0.43658947944641113
aF0.4730963408946991
aF0.41327083110809326
aF0.4193822145462036
aF0.40436553955078125
aF0.37413620948791504
aF0.45388445258140564
aF0.48533445596694946
aF0.3811129629611969
aF0.3513208031654358
aF0.43559426069259644
aF0.4265606999397278
aF0.47480180859565735
aF0.4464729428291321
aF0.39868268370628357
aF0.509960412979126
aF0.32914823293685913
aF0.4444413185119629
aF0.3335322141647339
aF0.45203515887260437
aF0.4536644220352173
aF0.40776702761650085
aF0.45975664258003235
aF0.38279107213020325
aF0.4135744273662567
aF0.4476624131202698
aF0.45411449670791626
aF0.43416082859039307
aF0.4190714955329895
aF0.4195932149887085
aF0.38903751969337463
aF0.46963363885879517
aF0.3725718855857849
aF0.345411092042923
aF0.4198082387447357
aF0.4283985197544098
aF0.45815524458885193
aF0.4663764238357544
aF0.4362335801124573
aF0.3635150194168091
aF0.39617273211479187
aF0.3814453184604645
aF0.4227399528026581
aF0.42530620098114014
aF0.46172401309013367
aF0.34584498405456543
aF0.4777899980545044
aF0.36500510573387146
aF0.39951926469802856
aF0.422308087348938
aF0.42150092124938965
aF0.4105302095413208
aF0.43629008531570435
aF0.4543919563293457
aF0.45016422867774963
aF0.43019238114356995
aF0.3623926043510437
aF0.42472413182258606
aF0.48798173666000366
aF0.3546276092529297
aF0.3726377487182617
aF0.40172386169433594
aF0.4240792393684387
aF0.4410814642906189
aF0.3912900686264038
aF0.3424263596534729
aF0.41301119327545166
aF0.45135635137557983
aF0.4053548276424408
aF0.453865110874176
aF0.4623790681362152
aF0.26718446612358093
aF0.3845151364803314
aF0.4117819666862488
aF0.554206371307373
aF0.40645721554756165
aF0.4317481219768524
aF0.34946927428245544
aF0.4046289622783661
aF0.4456111490726471
aF0.39486366510391235
aF0.44290968775749207
aF0.43837836384773254
aF0.423919141292572
aF0.6053258776664734
aF0.38762083649635315
aF0.357830673456192
aF0.40165287256240845
aF0.443070650100708
aF0.4346790015697479
aF0.33184829354286194
aF0.4795304834842682
aF0.3345082998275757
aF0.40849971771240234
aF0.4692118465900421
aF0.3544471859931946
aF0.3567553758621216
aF0.4533641040325165
aF0.6108406186103821
aF0.43200626969337463
aF0.4312168061733246
aF0.3703552782535553
aF0.30361923575401306
aF0.4680917263031006
aF0.4691261053085327
aF0.4291512966156006
aF0.4497019350528717
aF0.40281713008880615
aF0.48312538862228394
aF0.47465780377388
aF0.4693376421928406
aF0.41208314895629883
aF0.4917219281196594
aF0.47052833437919617
aF0.37096700072288513
aF0.4693789482116699
aF0.470228910446167
aF0.41846194863319397
aF0.4240315556526184
aF0.516085684299469
aF0.4390864968299866
aF0.4413713216781616
aF0.4318046569824219
aF0.3600296676158905
aF0.3954472541809082
aF0.43234777450561523
aF0.411173939704895
aF0.4266904294490814
aF0.37105607986450195
aF0.43195462226867676
aF0.3719584047794342
aF0.4521169364452362
aF0.4166787564754486
aF0.4153956174850464
aF0.45440757274627686
aF0.3827371299266815
aF0.41555702686309814
aF0.42965781688690186
aF0.3535965383052826
aF0.38684388995170593
aF0.33350059390068054
aF0.5783404111862183
aF0.40477895736694336
aF0.4559531509876251
aF0.40273070335388184
aF0.4409541189670563
aF0.5997489094734192
aF0.37921369075775146
aF0.41684260964393616
aF0.45020076632499695
aF0.49065738916397095
aF0.3864063322544098
aF0.37283089756965637
aF0.47164982557296753
aF0.4986514151096344
aF0.44198811054229736
aF0.5032358169555664
aF0.3777860403060913
aF0.3459266126155853
aF0.4184845983982086
aF0.34224042296409607
aF0.4004720151424408
aF0.4144502878189087
aF0.443070650100708
aF0.3823683261871338
aF0.5171431303024292
aF0.35092049837112427
aF0.34575900435447693
aF0.42956677079200745
aF0.44355782866477966
aF0.5846385359764099
aF0.4144318699836731
aF0.4760279655456543
aF0.43489399552345276
aF0.309548020362854
aF0.4323309361934662
aF0.3883567154407501
aF0.4372935891151428
aF0.515918493270874
aF0.3847745954990387
aF0.5921099185943604
aF0.4675876498222351
aF0.4384233355522156
aF0.3464875817298889
aF0.44120338559150696
aF0.43132156133651733
aF0.4521169364452362
aF0.43594399094581604
aF0.4198281168937683
aF0.454134464263916
aF0.4150071144104004
aF0.3525727689266205
aF0.4622194170951843
aF0.4370827078819275
aF0.47191834449768066
aF0.47797006368637085
aF0.46143144369125366
aF0.38429683446884155
aF0.4614322781562805
aF0.3835960328578949
aF0.5306156873703003
aF0.39890769124031067
aF0.4449203610420227
aF0.26620233058929443
aF0.4024530053138733
aF0.3782310485839844
aF0.4184414744377136
aF0.40764811635017395
aF0.380427747964859
aF0.45030465722084045
aF0.4398103356361389
aF0.46598610281944275
aF0.46402111649513245
aF0.4895346760749817
aF0.37530311942100525
aF0.4485923945903778
aF0.40637314319610596
aF0.44964805245399475
aF0.4431057870388031
aF0.4434608519077301
aF0.4618309438228607
aF0.40145131945610046
aF0.42584535479545593
aF0.43944039940834045
aF0.4570135772228241
aF0.4350355565547943
aF0.39337876439094543
aF0.44057729840278625
aF0.41558507084846497
aF0.4518416225910187
aF0.4135124981403351
aF0.5381193161010742
aF0.3575565218925476
aF0.45038455724716187
aF0.4872260093688965
aF0.4480311870574951
aF0.4569287896156311
aF0.42879724502563477
aF0.4563513398170471
aF0.4324459731578827
aF0.4264342784881592
aF0.4083772301673889
aF0.443797767162323
aF0.3529641032218933
aF0.34330612421035767
aF0.3539922833442688
aF0.4271785616874695
aF0.3984951376914978
aF0.43430233001708984
aF0.4249976575374603
aF0.3443213701248169
aF0.44483405351638794
aF0.41605427861213684
aF0.40967392921447754
aF0.399698942899704
aF0.4081445038318634
aF0.3159742057323456
aF0.4029664695262909
aF0.3634869456291199
aF0.3424634337425232
aF0.40522632002830505
aF0.40382349491119385
aF0.4566171169281006
aF0.4371792674064636
aF0.48484426736831665
aF0.4864124059677124
aF0.4453209936618805
aF0.44730621576309204
aF0.4480680525302887
aF0.4218203127384186
aF0.6466003060340881
aF0.4603508412837982
aF0.3694794178009033
aF0.44124481081962585
aF0.4484003782272339
aF0.3910216987133026
aF0.3349035084247589
aF0.40723076462745667
aF0.4187787175178528
aF0.5269042253494263
aF0.43234771490097046
aF0.4097680151462555
aF0.6009584665298462
aF0.4921937584877014
aF0.3476969003677368
aF0.4082026183605194
aF0.39285746216773987
aF0.4475685954093933
aF0.41834062337875366
aF0.5683769583702087
aF0.427542120218277
aF0.39023149013519287
aF0.4258016049861908
aF0.48575761914253235
aF0.3957368731498718
aF0.4451600909233093
aF0.41910505294799805
aF0.5323954820632935
aF0.43239855766296387
aF0.4518175721168518
aF0.4912969172000885
aF0.38553398847579956
aF0.3457161486148834
aF0.4434277415275574
aF0.37690216302871704
aF0.5160273313522339
aF0.49099957942962646
aF0.42993664741516113
aF0.4703914225101471
aF0.4189188778400421
aF0.47377192974090576
aF0.5208812952041626
aF0.4292757213115692
aF0.37995216250419617
aF0.4872829020023346
aF0.42962005734443665
aF0.33049291372299194
aF0.43196186423301697
aF0.40829017758369446
aF0.36898890137672424
aF0.46136704087257385
aF0.4452430307865143
aF0.3664014935493469
aF0.36980733275413513
aF0.4777742624282837
aF0.4591209888458252
aF0.4000397026538849
aF0.4234878420829773
aF0.4055493474006653
aF0.4228529930114746
aF0.46567225456237793
aF0.455905556678772
aF0.3583378195762634
aF0.4246982932090759
aF0.40981659293174744
aF0.3925338387489319
aF0.4491655230522156
aF0.3892475962638855
aF0.36576080322265625
aF0.45735466480255127
aF0.3556903302669525
aF0.3292742371559143
aF0.4534654915332794
aF0.3547464907169342
aF0.3964431583881378
aF0.39637041091918945
aF0.3708410859107971
aF0.5068668127059937
aF0.650169312953949
aF0.4299740493297577
aF0.4610121250152588
aF0.37711983919143677
aF0.42084604501724243
aF0.47629043459892273
aF0.48107844591140747
aF0.4908832609653473
aF0.3218449354171753
aF0.39187538623809814
aF0.43886175751686096
aF0.41588348150253296
aF0.4522911012172699
aF0.44547799229621887
aF0.4204307794570923
aF0.5238406658172607
aF0.4209994077682495
aF0.480593204498291
aF0.41334643959999084
aF0.4076448082923889
aF0.4011092782020569
aF0.413693904876709
aF0.4518568813800812
aF0.4333752989768982
aF0.41019314527511597
aF0.3675757348537445
aF0.29830580949783325
aF0.45690473914146423
aF0.4263363182544708
aF0.44009047746658325
aF0.3851992189884186
aF0.4314066767692566
aF0.46407172083854675
aF0.4330107867717743
aF0.4414861500263214
aF0.3687620759010315
aF0.3354046046733856
aF0.4974624812602997
aF0.3916315734386444
aF0.42793935537338257
aF0.41540971398353577
aF0.4154767692089081
aF0.33740827441215515
aF0.347194105386734
aF0.46243420243263245
aF0.359882652759552
aF0.5132653117179871
aF0.3831281065940857
aF0.4150680899620056
aF0.3137317895889282
aF0.3797093629837036
aF0.45240965485572815
aF0.506452739238739
aF0.4191802740097046
aF0.43762698769569397
aF0.41615211963653564
aF0.40170568227767944
aF0.3531820476055145
aF0.45765459537506104
aF0.37077081203460693
aF0.4229324162006378
aF0.4245452880859375
aF0.4073580503463745
aF0.4671826958656311
aF0.4088689982891083
aF0.4490569531917572
aF0.34961724281311035
aF0.46397387981414795
aF0.41964828968048096
aF0.41917455196380615
aF0.45630529522895813
aF0.4198993742465973
aF0.5202649831771851
aF0.4077206254005432
aF0.46113163232803345
aF0.4138528108596802
aF0.4017922878265381
aF0.35669535398483276
aF0.40203869342803955
aF0.44305187463760376
aF0.3486364781856537
aF0.43455740809440613
aF0.42323315143585205
aF0.4768012762069702
aF0.5273385643959045
aF0.4337030053138733
aF0.43064573407173157
aF0.48586612939834595
aF0.4447663426399231
aF0.4446333050727844
aF0.4259708821773529
aF0.3831045627593994
aF0.34109658002853394
aF0.3643776476383209
aF0.3111676573753357
aF0.3333885371685028
aF0.34119561314582825
aF0.3610886335372925
aF0.3891229033470154
aF0.45388078689575195
aF0.31217601895332336
aF0.4389584958553314
aF0.45282989740371704
aF0.4128021001815796
aF0.300262451171875
aF0.4963235557079315
aF0.3728020191192627
aF0.4463309347629547
aF0.43018555641174316
aF0.42150580883026123
aF0.4530518651008606
aF0.3448290228843689
aF0.42422163486480713
aF0.43341976404190063
aF0.43447554111480713
aF0.5183612108230591
aF0.4541175067424774
aF0.48472630977630615
aF0.45100224018096924
aF0.4690364599227905
aF0.33639514446258545
aF0.4330429434776306
aF0.37277016043663025
aF0.45447513461112976
aF0.47749853134155273
aF0.44073471426963806
aF0.3442854881286621
aF0.5987865328788757
aF0.422014445066452
aF0.4320566952228546
aF0.4249248802661896
aF0.532503604888916
aF0.41642317175865173
aF0.42405200004577637
aF0.4567275941371918
aF0.34904175996780396
aF0.42085644602775574
aF0.474395751953125
aF0.475970983505249
aF0.4308423399925232
aF0.5997759699821472
aF0.4784097969532013
aF0.45542967319488525
aF0.43952882289886475
aF0.41274043917655945
aF0.3968140482902527
aF0.3794322609901428
aF0.45938554406166077
aF0.4382378160953522
aF0.4592098593711853
aF0.42697060108184814
aF0.42338842153549194
aF0.41514644026756287
aF0.48276638984680176
aF0.40228718519210815
aF0.4156448543071747
aF0.4723002016544342
aF0.4771755635738373
aF0.41417792439460754
aF0.46422675251960754
aF0.4092946946620941
aF0.45175185799598694
aF0.3528578579425812
aF0.4083116054534912
aF0.4991866946220398
aF0.49924200773239136
aF0.3961022198200226
aF0.39700308442115784
aF0.512760579586029
aF0.3606582283973694
aF0.4353306293487549
aF0.43868502974510193
aF0.3199576735496521
aF0.35000714659690857
aF0.34798669815063477
aF0.3741611838340759
aF0.3365737199783325
aF0.35280466079711914
aF0.3735997676849365
aF0.4499022960662842
aF0.39629268646240234
aF0.439212441444397
aF0.4628705084323883
aF0.3381192684173584
aF0.3835928440093994
aF0.36858123540878296
aF0.4498382806777954
aF0.3638085126876831
aF0.5030516982078552
aF0.44066789746284485
aF0.43042173981666565
aF0.37132731080055237
aF0.4168807864189148
aF0.37456783652305603
aF0.40802860260009766
aF0.44825202226638794
aF0.4363354444503784
aF0.35981443524360657
aF0.4582200348377228
aF0.473398894071579
aF0.4312865734100342
aF0.55675208568573
aF0.34096506237983704
aF0.4576108753681183
aF0.4249778687953949
aF0.4523783028125763
aF0.4768543243408203
aF0.5019963383674622
aF0.6075282692909241
aF0.21056392788887024
aF0.39156490564346313
aF0.4117911756038666
aF0.3489631116390228
aF0.4700965881347656
aF0.5434759259223938
aF0.47327420115470886
aF0.39049991965293884
aF0.464642196893692
aF0.3605972230434418
aF0.38886356353759766
aF0.49235400557518005
aF0.3779112994670868
aF0.32887154817581177
aF0.39644140005111694
aF0.3416120409965515
aF0.43720513582229614
aF0.4768510162830353
aF0.6076672673225403
aF0.38609927892684937
aF0.43767812848091125
aF0.4493871033191681
aF0.40411171317100525
aF0.36257487535476685
aF0.4173126816749573
aF0.41883981227874756
aF0.47672975063323975
aF0.4119627773761749
aF0.3583776652812958
aF0.3537345826625824
aF0.4082678556442261
aF0.4672534465789795
aF0.35618430376052856
aF0.43844929337501526
aF0.3572838604450226
aF0.3650633990764618
aF0.44520723819732666
aF0.43003788590431213
aF0.4283794164657593
aF0.47090816497802734
aF0.41425323486328125
aF0.4498061537742615
aF0.4073583483695984
aF0.353311687707901
aF0.4922385811805725
aF0.4460880756378174
aF0.3802632689476013
aF0.3957849442958832
aF0.32918813824653625
aF0.4526215195655823
aF0.4671626091003418
aF0.426994264125824
aF0.45057782530784607
aF0.3800770938396454
aF0.3648958206176758
aF0.5935985445976257
aF0.3346381187438965
aF0.41564080119132996
aF0.4609508216381073
aF0.3479422330856323
aF0.3761718273162842
aF0.413312703371048
aF0.3593759536743164
aF0.43427833914756775
aF0.4550654888153076
aF0.4342533349990845
aF0.32623380422592163
aF0.433442085981369
aF0.45003393292427063
aF0.4322952628135681
aF0.4167719781398773
aF0.3327798843383789
aF0.4339851438999176
aF0.42604860663414
aF0.48402273654937744
aF0.46884864568710327
aF0.46395212411880493
aF0.5550737977027893
aF0.44786450266838074
aF0.44823384284973145
aF0.39380016922950745
aF0.4396010935306549
aF0.3481253683567047
aF0.5243038535118103
aF0.35198909044265747
aF0.41965529322624207
aF0.38344886898994446
aF0.42026111483573914
aF0.4865807294845581
aF0.37614426016807556
aF0.5950282216072083
aF0.2686757743358612
aF0.3572327494621277
aF0.4419884979724884
aF0.43735191226005554
aF0.48603492975234985
aF0.4011044502258301
aF0.42602303624153137
aF0.37846192717552185
aF0.40621066093444824
aF0.4340068995952606
aF0.43783944845199585
aF0.4170588254928589
aF0.510166585445404
aF0.29698070883750916
aF0.46612676978111267
aF0.3479950428009033
aF0.4262271821498871
aF0.4220738410949707
aF0.44267094135284424
aF0.49628713726997375
aF0.40566369891166687
aF0.46465080976486206
aF0.34903571009635925
aF0.4521592855453491
aF0.4020407199859619
aF0.44149598479270935
aF0.3569439947605133
aF0.4714087247848511
aF0.4502198100090027
aF0.3223177194595337
aF0.43521517515182495
aF0.453006774187088
aF0.41498833894729614
aF0.3307757079601288
aF0.4373958110809326
aF0.6855807900428772
aF0.42656219005584717
aF0.37106966972351074
aF0.5398300886154175
aF0.3927985727787018
aF0.3788062036037445
aF0.41096359491348267
aF0.4674583077430725
aF0.4065520167350769
aF0.5016350746154785
aF0.4015013873577118
aF0.3301706910133362
aF0.4660591185092926
aF0.366988867521286
aF0.3956473767757416
aF0.4407297968864441
aF0.4448537826538086
aF0.399539053440094
aF0.47324758768081665
aF0.4228588342666626
aF0.35947385430336
aF0.3851686716079712
aF0.4313623607158661
aF0.44209468364715576
aF0.44083815813064575
aF0.4566746652126312
aF0.3949187695980072
aF0.3927428126335144
aF0.4818025827407837
aF0.4596575200557709
aF0.44599732756614685
aF0.4447539746761322
aF0.35798928141593933
aF0.4276951253414154
aF0.42605143785476685
aF0.422494500875473
aF0.34259817004203796
aF0.5770959854125977
aF0.4149892330169678
aF0.4034073054790497
aF0.4438571631908417
aF0.35947901010513306
aF0.5550982356071472
aF0.43651819229125977
aF0.4262227416038513
aF0.4328632354736328
aF0.4295162856578827
aF0.3500596880912781
aF0.4589987099170685
aF0.4281081557273865
aF0.4261997938156128
aF0.617655873298645
aF0.4727661907672882
aF0.40829238295555115
aF0.5784062147140503
aF0.42934197187423706
aF0.4173402190208435
aF0.31846514344215393
aF0.5557502508163452
aF0.3798868656158447
aF0.49870195984840393
aF0.4809177815914154
aF0.4515093266963959
aF0.39088088274002075
aF0.44286978244781494
aF0.47333550453186035
aF0.4071377217769623
aF0.40402522683143616
aF0.39825472235679626
aF0.474077433347702
aF0.421148419380188
aF0.40217897295951843
aF0.42030617594718933
aF0.43732577562332153
aF0.46037179231643677
aF0.35573118925094604
aF0.4619901478290558
aF0.4612785577774048
aF0.4655725955963135
aF0.41368693113327026
aF0.279460608959198
aF0.4535141587257385
aF0.4660622179508209
aF0.3857437074184418
aF0.46719086170196533
aF0.37467002868652344
aF0.45138609409332275
aF0.3680763840675354
aF0.41166940331459045
aF0.41723501682281494
aF0.3763062357902527
aF0.4027675688266754
aF0.40173429250717163
aF0.3805374801158905
aF0.3933239281177521
aF0.44587454199790955
aF0.490807443857193
aF0.47779718041419983
aF0.4563634693622589
aF0.4518330693244934
aF0.4586886763572693
aF0.46388575434684753
aF0.464083731174469
aF0.36474135518074036
aF0.34919583797454834
aF0.4524395167827606
aF0.3926687240600586
aF0.44550228118896484
aF0.451272577047348
aF0.38204726576805115
aF0.35169464349746704
aF0.4010683298110962
aF0.4398993253707886
aF0.4026263952255249
aF0.3935377895832062
aF0.4621359407901764
aF0.48025235533714294
aF0.31872841715812683
aF0.43755418062210083
aF0.38275304436683655
aF0.4028673470020294
aF0.42268943786621094
aF0.41089317202568054
aF0.4725605249404907
aF0.4727761149406433
aF0.3914307951927185
aF0.43982356786727905
aF0.3874547779560089
aF0.4746006727218628
aF0.3776050806045532
aF0.46522781252861023
aF0.4722091853618622
aF0.3874955177307129
aF0.37370213866233826
aF0.39395108819007874
aF0.40571582317352295
aF0.3461531400680542
aF0.4391903579235077
aF0.41833966970443726
aF0.42122477293014526
aF0.4090026319026947
aF0.46686434745788574
aF0.4078323543071747
aF0.5328611135482788
aF0.44389912486076355
aF0.4658518135547638
aF0.44715890288352966
aF0.40998610854148865
aF0.41423311829566956
aF0.36331912875175476
aF0.4005364179611206
aF0.31205135583877563
aF0.37967100739479065
aF0.4516911804676056
aF0.3017682433128357
aF0.3572506010532379
aF0.40346914529800415
aF0.4303498864173889
aF0.34784674644470215
aF0.3662075400352478
aF0.359007865190506
aF0.3709278404712677
aF0.4419024586677551
aF0.4054553210735321
aF0.3731910288333893
aF0.4348384141921997
aF0.3873753547668457
aF0.4178333878517151
aF0.3147769272327423
aF0.3535536229610443
aF0.3539500832557678
aF0.2966243624687195
aF0.38995543122291565
aF0.352552205324173
aF0.31736066937446594
aF0.34601664543151855
aF0.3008463680744171
aF0.34336552023887634
aF0.32217222452163696
aF0.34631603956222534
aF0.3615153729915619
aF0.3724417984485626
aF0.35289984941482544
aF0.36636587977409363
aF0.28232356905937195
aF0.3754757344722748
aF0.40655645728111267
aF0.26842689514160156
aF0.37374958395957947
aF0.34944039583206177
aF0.38958796858787537
aF0.4624824523925781
aF0.3855910003185272
aF0.3645097315311432
aF0.3925325572490692
aF0.2948572039604187
aF0.40660756826400757
aF0.37423354387283325
aF0.35562247037887573
aF0.3920001685619354
aF0.4114474654197693
aF0.39194968342781067
aF0.3734626770019531
aF0.3527688980102539
aF0.3604191541671753
aF0.28858694434165955
aF0.37766703963279724
aF0.4347749948501587
aF0.35893285274505615
aF0.4237367510795593
aF0.1855771839618683
aF0.5445960164070129
aF0.2536921799182892
aF0.3279626667499542
aF0.3630535304546356
aF0.4208112061023712
aF0.3901175856590271
aF0.41533029079437256
aF0.3639509677886963
aF0.35610535740852356
aF0.39499202370643616
aF0.3031325936317444
aF0.3892655074596405
aF0.3679141402244568
aF0.3510282039642334
aF0.4306858479976654
aF0.41405388712882996
aF0.36286306381225586
aF0.4850125014781952
aF0.351543664932251
aF0.38784903287887573
aF0.3873057961463928
aF0.41195619106292725
aF0.4364854097366333
aF0.3568398654460907
aF0.545398473739624
aF0.3716526925563812
aF0.3494536578655243
aF0.3752545714378357
aF0.3588760793209076
aF0.35665765404701233
aF0.34278571605682373
aF0.4812937080860138
aF0.35688185691833496
aF0.26065385341644287
aF0.35422664880752563
aF0.3462299704551697
aF0.4367947578430176
aF0.397461473941803
aF0.3541789948940277
aF0.376867413520813
aF0.42656412720680237
aF0.30572548508644104
aF0.4322819411754608
aF0.37984272837638855
aF0.3766995966434479
aF0.464786171913147
aF0.38043591380119324
aF0.37418657541275024
aF0.3484053909778595
aF0.2972467243671417
aF0.39883697032928467
aF0.355528861284256
aF0.43975120782852173
aF0.34126460552215576
aF0.38831254839897156
aF0.3609379827976227
aF0.36571308970451355
aF0.3446568548679352
aF0.39462560415267944
aF0.3790765702724457
aF0.3660811483860016
aF0.3048199415206909
aF0.4267512261867523
aF0.404466837644577
aF0.4154092073440552
aF0.3945949673652649
aF0.35854387283325195
aF0.3678203225135803
aF0.3804362416267395
aF0.3629230558872223
aF0.37434712052345276
aF0.36842080950737
aF0.31624191999435425
aF0.4519653022289276
aF0.4182164967060089
aF0.4747539460659027
aF0.4243674874305725
aF0.3507016897201538
aF0.43314170837402344
aF0.3768088221549988
aF0.36048200726509094
aF0.28807875514030457
aF0.3110911250114441
aF0.4369850158691406
aF0.47437143325805664
aF0.383118212223053
aF0.4600851237773895
aF0.3308180868625641
aF0.4351101815700531
aF0.38035136461257935
aF0.39559832215309143
aF0.31249386072158813
aF0.36480286717414856
aF0.3397620916366577
aF0.45533400774002075
aF0.36567193269729614
aF0.3804844915866852
aF0.41140297055244446
aF0.43883487582206726
aF0.3890916705131531
aF0.29232683777809143
aF0.4305136501789093
aF0.3509048521518707
aF0.3551417589187622
aF0.27007076144218445
aF0.4290814697742462
aF0.35999348759651184
aF0.35054972767829895
aF0.3559721112251282
aF0.3735246956348419
aF0.3706304430961609
aF0.3705683648586273
aF0.4324048161506653
aF0.42589056491851807
aF0.4417680501937866
aF0.199399933218956
aF0.2913495898246765
aF0.3709758520126343
aF0.40986132621765137
aF0.39419156312942505
aF0.35378018021583557
aF0.2880655825138092
aF0.3299142122268677
aF0.4108886420726776
aF0.3924095630645752
aF0.37744468450546265
aF0.4175370931625366
aF0.3590158224105835
aF0.4203238785266876
aF0.326856791973114
aF0.4225338101387024
aF0.34631019830703735
aF0.3592592477798462
aF0.35256505012512207
aF0.3977181911468506
aF0.3210729658603668
aF0.38566187024116516
aF0.3996160626411438
aF0.2803756892681122
aF0.3185296654701233
aF0.36377793550491333
aF0.3378582000732422
aF0.3428158164024353
aF0.409184068441391
aF0.3584151566028595
aF0.4124995172023773
aF0.3811681270599365
aF0.35838672518730164
aF0.38331472873687744
aF0.21888574957847595
aF0.36210542917251587
aF0.32111281156539917
aF0.21123026311397552
aF0.356101930141449
aF0.4469822943210602
aF0.3231881260871887
aF0.4782041609287262
aF0.3535807132720947
aF0.33471938967704773
aF0.42340436577796936
aF0.5297572612762451
aF0.3757299482822418
aF0.30776268243789673
aF0.366425484418869
aF0.4269384443759918
aF0.44748741388320923
aF0.3792894780635834
aF0.3666956126689911
aF0.38727521896362305
aF0.3638637363910675
aF0.43149858713150024
aF0.32431307435035706
aF0.3718212842941284
aF0.37079888582229614
aF0.4122703969478607
aF0.42800235748291016
aF0.43771493434906006
aF0.3592069149017334
aF0.3627989590167999
aF0.4129546880722046
aF0.4117111265659332
aF0.4042603373527527
aF0.34755033254623413
aF0.4202636182308197
aF0.4765454828739166
aF0.36200299859046936
aF0.3070509135723114
aF0.32520410418510437
aF0.45930200815200806
aF0.4264366626739502
aF0.34115180373191833
aF0.35363104939460754
aF0.3694245219230652
aF0.4482728838920593
aF0.34269338846206665
aF0.4599778950214386
aF0.39722684025764465
aF0.27966633439064026
aF0.28280675411224365
aF0.47079071402549744
aF0.371928334236145
aF0.4249027669429779
aF0.4909193217754364
aF0.4499155580997467
aF0.4172115921974182
aF0.26233938336372375
aF0.4762575328350067
aF0.31585076451301575
aF0.28064215183258057
aF0.4198867976665497
aF0.36712196469306946
aF0.37598222494125366
aF0.3322088420391083
aF0.402413547039032
aF0.35572633147239685
aF0.3404686748981476
aF0.36882200837135315
aF0.3561098873615265
aF0.38532915711402893
aF0.38270965218544006
aF0.44243475794792175
aF0.4520474970340729
aF0.3178473711013794
aF0.3090367317199707
aF0.4014805555343628
aF0.42316868901252747
aF0.4313162863254547
aF0.3638853430747986
aF0.46975579857826233
aF0.4543999433517456
aF0.43976399302482605
aF0.3523987829685211
aF0.35520005226135254
aF0.38226550817489624
aF0.3411019742488861
aF0.3840550184249878
aF0.41972169280052185
aF0.3566228747367859
aF0.42592939734458923
aF0.3588630259037018
aF0.325845867395401
aF0.3607844114303589
aF0.41465333104133606
aF0.4223094880580902
aF0.39644855260849
aF0.31128016114234924
aF0.3021133542060852
aF0.44397854804992676
aF0.42820703983306885
aF0.3598770499229431
aF0.4444296360015869
aF0.3603225350379944
aF0.44105491042137146
aF0.37920764088630676
aF0.34812772274017334
aF0.2836802303791046
aF0.38134780526161194
aF0.3483157753944397
aF0.35024818778038025
aF0.29894042015075684
aF0.4211285710334778
aF0.40717417001724243
aF0.3697185218334198
aF0.3025899827480316
aF0.3152698278427124
aF0.3767000734806061
aF0.4134663939476013
aF0.4341714084148407
aF0.4283881187438965
aF0.43042826652526855
aF0.4434479773044586
aF0.3301876485347748
aF0.25925078988075256
aF0.39940863847732544
aF0.309464693069458
aF0.42269065976142883
aF0.2990349233150482
aF0.35111895203590393
aF0.3565680980682373
aF0.34181851148605347
aF0.40381088852882385
aF0.3928050100803375
aF0.43567344546318054
aF0.42076247930526733
aF0.2530914545059204
aF0.38565605878829956
aF0.2633627951145172
aF0.39796483516693115
aF0.3444071114063263
aF0.34382715821266174
aF0.45143258571624756
aF0.3178805410861969
aF0.27647945284843445
aF0.4472297728061676
aF0.4014805555343628
aF0.3780345022678375
aF0.41659224033355713
aF0.359340101480484
aF0.3478012681007385
aF0.41008540987968445
aF0.28480133414268494
aF0.36572831869125366
aF0.45468464493751526
aF0.3197896182537079
aF0.34075725078582764
aF0.37555786967277527
aF0.43417033553123474
aF0.32119861245155334
aF0.39030706882476807
aF0.3089650869369507
aF0.32767000794410706
aF0.3367612063884735
aF0.1919144093990326
aF0.26161864399909973
aF0.409504234790802
aF0.3165700137615204
aF0.347944438457489
aF0.3877551853656769
aF0.3598770499229431
aF0.3611205518245697
aF0.3938671946525574
aF0.3273029327392578
aF0.32749491930007935
aF0.45324796438217163
aF0.38526082038879395
aF0.36548686027526855
aF0.19928182661533356
aF0.4572471082210541
aF0.4266151785850525
aF0.4224556088447571
aF0.4042469263076782
aF0.27268925309181213
aF0.382987380027771
aF0.3661850094795227
aF0.40113934874534607
aF0.3521674871444702
aF0.43633297085762024
aF0.3434503674507141
aF0.3814719021320343
aF0.3497854471206665
aF0.39306774735450745
aF0.2011445164680481
aF0.34196197986602783
aF0.4138026833534241
aF0.411098450422287
aF0.3673099875450134
aF0.3553122580051422
aF0.3958643674850464
aF0.45940014719963074
aF0.40628665685653687
aF0.35578200221061707
aF0.3219788670539856
aF0.2971690893173218
aF0.2862527370452881
aF0.40818578004837036
aF0.2736800014972687
aF0.2573797106742859
aF0.4339120090007782
aF0.28638386726379395
aF0.46807295083999634
aF0.44016069173812866
aF0.36056068539619446
aF0.3712511658668518
aF0.34246525168418884
aF0.4068085551261902
aF0.3884814381599426
aF0.3965931534767151
aF0.3516494631767273
aF0.44107356667518616
aF0.4699063301086426
aF0.36829718947410583
aF0.3014046847820282
aF0.34454306960105896
aF0.4618222117424011
aF0.3536377251148224
aF0.35325875878334045
aF0.4069911241531372
aF0.40021172165870667
aF0.36795148253440857
aF0.3134247660636902
aF0.3081778585910797
aF0.42548316717147827
aF0.43264058232307434
aF0.3751165568828583
aF0.4438161551952362
aF0.43828415870666504
aF0.42515701055526733
aF0.37349483370780945
aF0.4481477737426758
aF0.3005928695201874
aF0.3230123221874237
aF0.41148439049720764
aF0.330512672662735
aF0.2899765968322754
aF0.43935778737068176
aF0.2852647304534912
aF0.3199142813682556
aF0.4017753303050995
aF0.33989670872688293
aF0.39208167791366577
aF0.1828881949186325
aF0.38679829239845276
aF0.39592859148979187
aF0.38012397289276123
aF0.376645028591156
aF0.33250242471694946
aF0.40504175424575806
aF0.3557351231575012
aF0.33682405948638916
aF0.434706449508667
aF0.3138917088508606
aF0.3777978718280792
aF0.46722427010536194
aF0.44423186779022217
aF0.3321758210659027
aF0.2920132279396057
aF0.3357137143611908
aF0.3354102075099945
aF0.344607412815094
aF0.443137526512146
aF0.36295998096466064
aF0.3617419898509979
aF0.38471969962120056
aF0.3496459126472473
aF0.5659831166267395
aF0.34808725118637085
aF0.39025208353996277
aF0.35597559809684753
aF0.4731961190700531
aF0.3501579761505127
aF0.4007723331451416
aF0.306039035320282
aF0.40525829792022705
aF0.47513681650161743
aF0.29715827107429504
aF0.39946383237838745
aF0.3562803864479065
aF0.3586972653865814
aF0.34388747811317444
aF0.39152219891548157
aF0.3496628701686859
aF0.4597555994987488
aF0.38660991191864014
aF0.3534807562828064
aF0.47367674112319946
aF0.2970465421676636
aF0.4485771656036377
aF0.37171342968940735
aF0.3593856692314148
aF0.41679903864860535
aF0.3958585560321808
aF0.35678917169570923
aF0.3616635203361511
aF0.4130283296108246
aF0.4361291229724884
aF0.2810957431793213
aF0.4052700996398926
aF0.34360527992248535
aF0.36664503812789917
aF0.3768645226955414
aF0.4440574645996094
aF0.3501984775066376
aF0.37934941053390503
aF0.4425964951515198
aF0.43580713868141174
aF0.4410288333892822
aF0.3182588219642639
aF0.40049198269844055
aF0.36646974086761475
aF0.358015775680542
aF0.3646714389324188
aF0.18985645473003387
aF0.41740110516548157
aF0.44147369265556335
aF0.45092281699180603
aF0.40210193395614624
aF0.3175804913043976
aF0.26979365944862366
aF0.34599214792251587
aF0.4068348705768585
aF0.4225338101387024
aF0.3563794195652008
aF0.36691606044769287
aF0.32666200399398804
aF0.33232423663139343
aF0.4062628149986267
aF0.492099404335022
aF0.4020955562591553
aF0.42165252566337585
aF0.3602086305618286
aF0.4209878444671631
aF0.4075389802455902
aF0.37613150477409363
aF0.3506721556186676
aF0.35223260521888733
aF0.3641436994075775
aF0.4281558096408844
aF0.4347470998764038
aF0.4329394996166229
aF0.42138996720314026
aF0.36411213874816895
aF0.3662508428096771
aF0.42591992020606995
aF0.17891843616962433
aF0.3252709209918976
aF0.35457247495651245
aF0.37218302488327026
aF0.3314219117164612
aF0.431717187166214
aF0.36180317401885986
aF0.3386564552783966
aF0.35927021503448486
aF0.3640929162502289
aF0.2790505290031433
aF0.3268953263759613
aF0.4306175112724304
aF0.4141305387020111
aF0.41544464230537415
aF0.3794323801994324
aF0.3850787878036499
aF0.27147039771080017
aF0.35037466883659363
aF0.37286317348480225
aF0.3071790933609009
aF0.35156989097595215
aF0.3240022659301758
aF0.3791886568069458
aF0.3477557301521301
aF0.37675780057907104
aF0.4414767622947693
aF0.28919482231140137
aF0.3680208921432495
aF0.35540956258773804
aF0.47113481163978577
aF0.3857165277004242
aF0.48934435844421387
aF0.3424887955188751
aF0.36472174525260925
aF0.3762582838535309
aF0.34011441469192505
aF0.20778287947177887
aF0.3748985528945923
aF0.4368693232536316
aF0.39366671442985535
aF0.20021063089370728
aF0.41970494389533997
aF0.41956767439842224
aF0.3554333448410034
aF0.3212703466415405
aF0.36654698848724365
aF0.1951075792312622
aF0.35041195154190063
aF0.3302338123321533
aF0.4437575936317444
aF0.435927152633667
aF0.3455023765563965
aF0.38555237650871277
aF0.35245028138160706
aF0.4028782248497009
aF0.3538825213909149
aF0.5240769982337952
aF0.34678056836128235
aF0.3898884057998657
aF0.3130696713924408
aF0.1975121945142746
aF0.3109452724456787
aF0.3430040776729584
aF0.4083314836025238
aF0.38022753596305847
aF0.422722727060318
aF0.33897706866264343
aF0.45756232738494873
aF0.3345758318901062
aF0.40466153621673584
aF0.38702645897865295
aF0.3795364201068878
aF0.45322099328041077
aF0.4363519847393036
aF0.29168903827667236
aF0.4609779417514801
aF0.3860085904598236
aF0.3594733774662018
aF0.3529670238494873
aF0.29701918363571167
aF0.3660527467727661
aF0.37547144293785095
aF0.34018203616142273
aF0.3332083821296692
aF0.43804314732551575
aF0.4223760962486267
aF0.40059465169906616
aF0.38651737570762634
aF0.4408840835094452
aF0.40908700227737427
aF0.34011441469192505
aF0.43226566910743713
aF0.38044309616088867
aF0.44901013374328613
aF0.3859228193759918
aF0.37434151768684387
aF0.4451879560947418
aF0.5130338072776794
aF0.4035654366016388
aF0.36997878551483154
aF0.6112613081932068
aF0.36833539605140686
aF0.3415254056453705
aF0.4598640203475952
aF0.4134550988674164
aF0.3694823682308197
aF0.32932451367378235
aF0.3224791884422302
aF0.3095705509185791
aF0.33350759744644165
aF0.3468753397464752
aF0.3433089256286621
aF0.3273959457874298
aF0.40958958864212036
aF0.30606669187545776
aF0.3554231524467468
aF0.3303273618221283
aF0.2986096441745758
aF0.4285385012626648
aF0.46194732189178467
aF0.30053645372390747
aF0.2961789667606354
aF0.38156262040138245
aF0.37024012207984924
aF0.45324304699897766
aF0.3663286864757538
aF0.414359450340271
aF0.37332966923713684
aF0.3965557813644409
aF0.4031781852245331
aF0.2621888220310211
aF0.34213143587112427
aF0.3542332053184509
aF0.4091963768005371
aF0.4469793438911438
aF0.370265394449234
aF0.4006783366203308
aF0.30185166001319885
aF0.4114540219306946
aF0.3533981442451477
aF0.4331246614456177
aF0.42798522114753723
aF0.3608406186103821
aF0.5087023377418518
aF0.4024988114833832
aF0.3509677052497864
aF0.4880443811416626
aF0.29946115612983704
aF0.35901010036468506
aF0.45277225971221924
aF0.5258055329322815
aF0.4473395049571991
aF0.3493725061416626
aF0.3623010814189911
aF0.34837454557418823
aF0.3948988616466522
aF0.41906189918518066
aF0.2815031111240387
aF0.38128045201301575
aF0.3514879643917084
aF0.4202403724193573
aF0.36296936869621277
aF0.27164068818092346
aF0.332751989364624
aF0.3626684546470642
aF0.4046606719493866
aF0.38249069452285767
aF0.3803780972957611
aF0.35270416736602783
aF0.31143781542778015
aF0.4010060727596283
aF0.4545994699001312
aF0.37946492433547974
aF0.21791821718215942
aF0.44069212675094604
aF0.33299821615219116
aF0.3550049066543579
aF0.45035234093666077
aF0.35786375403404236
aF0.3277796506881714
aF0.357864111661911
aF0.3536154627799988
aF0.3564150929450989
aF0.330666184425354
aF0.17235571146011353
aF0.3442935347557068
aF0.378726601600647
aF0.32196760177612305
aF0.3873061239719391
aF0.437256783246994
aF0.31296902894973755
aF0.20236657559871674
aF0.3795963525772095
aF0.15825416147708893
aF0.35723263025283813
aF0.44217684864997864
aF0.33339008688926697
aF0.4077511727809906
aF0.383309006690979
aF0.19528503715991974
aF0.3157287538051605
aF0.3525010049343109
aF0.20710332691669464
aF0.3278697729110718
aF0.3480238914489746
aF0.3254481852054596
aF0.3790534734725952
aF0.4660647511482239
aF0.3196525275707245
aF0.3899784982204437
aF0.38208797574043274
aF0.3846761882305145
aF0.41111862659454346
aF0.36543726921081543
aF0.32749491930007935
aF0.34964409470558167
aF0.4270241856575012
aF0.41767749190330505
aF0.4335932731628418
aF0.43624818325042725
aF0.40283286571502686
aF0.3816586434841156
aF0.33346110582351685
aF0.34430012106895447
aF0.38213759660720825
aF0.36650776863098145
aF0.3873949646949768
aF0.35202452540397644
aF0.4279576539993286
aF0.4611186683177948
aF0.2011445164680481
aF0.3856199383735657
aF0.2725587487220764
aF0.38896265625953674
aF0.3726408779621124
aF0.4345288872718811
aF0.36710891127586365
aF0.4581841826438904
aF0.38745325803756714
aF0.3213200569152832
aF0.38990527391433716
aF0.29044681787490845
aF0.26305195689201355
aF0.2956603765487671
aF0.45227402448654175
aF0.3075566291809082
aF0.3196493685245514
aF0.42719557881355286
aF0.3793679475784302
aF0.16870740056037903
aF0.3636538088321686
aF0.42214617133140564
aF0.4425886869430542
aF0.35201218724250793
aF0.38725993037223816
aF0.4760948121547699
aF0.41221728920936584
aF0.42496445775032043
aF0.37850356101989746
aF0.2686193287372589
aF0.4237635135650635
aF0.4254888594150543
aF0.440259724855423
aF0.2891274392604828
aF0.3765706419944763
aF0.31115657091140747
aF0.3297601044178009
aF0.39412161707878113
aF0.18917182087898254
aF0.29197144508361816
aF0.3289453387260437
aF0.2240205705165863
aF0.37811607122421265
aF0.2703297436237335
aF0.3911089599132538
aF0.3616829812526703
aF0.448127418756485
aF0.46419739723205566
aF0.3561195135116577
aF0.28457337617874146
aF0.37527352571487427
aF0.38012784719467163
aF0.20961639285087585
aF0.3686229884624481
aF0.3355158865451813
aF0.16417641937732697
aF0.4159814417362213
aF0.31284579634666443
aF0.40132567286491394
aF0.36743342876434326
aF0.3073543906211853
aF0.4746951162815094
aF0.3814181089401245
aF0.2986132502555847
aF0.35447514057159424
aF0.3993464410305023
aF0.3835839331150055
aF0.3651323914527893
aF0.3887416124343872
aF0.38417673110961914
aF0.36861905455589294
aF0.4072933793067932
aF0.32710984349250793
aF0.4440574645996094
aF0.45250940322875977
aF0.3855588138103485
aF0.31940579414367676
aF0.4000459909439087
aF0.28160253167152405
aF0.3037327826023102
aF0.40666037797927856
aF0.3844606876373291
aF0.369909405708313
aF0.40793344378471375
aF0.2657823860645294
aF0.42839086055755615
aF0.36079272627830505
aF0.44146785140037537
aF0.37714099884033203
aF0.34626221656799316
aF0.46439945697784424
aF0.3643648028373718
aF0.3616471290588379
aF0.37735873460769653
aF0.3513143062591553
aF0.19851578772068024
aF0.35521551966667175
aF0.3554273247718811
aF0.36403152346611023
aF0.17885196208953857
aF0.41969069838523865
aF0.3807280659675598
aF0.4338441789150238
aF0.28708893060684204
aF0.31469500064849854
aF0.48842117190361023
aF0.2448250651359558
aF0.3546389043331146
aF0.3569251298904419
aF0.370913565158844
aF0.40653130412101746
aF0.4532197415828705
aF0.30423504114151
aF0.39569196105003357
aF0.3884790241718292
aF0.3455709218978882
aF0.42679888010025024
aF0.47753623127937317
aF0.4197709560394287
aF0.37139537930488586
aF0.3804106116294861
aF0.35866838693618774
aF0.36465179920196533
aF0.32252413034439087
aF0.37877121567726135
aF0.36730629205703735
aF0.33571213483810425
aF0.3669993579387665
aF0.40926188230514526
aF0.3628080487251282
aF0.3627431094646454
aF0.36827903985977173
aF0.4247490465641022
aF0.3197013735771179
aF0.42090487480163574
aF0.29214203357696533
aF0.26911938190460205
aF0.356161504983902
aF0.39475157856941223
aF0.31312650442123413
aF0.3711036741733551
aF0.3479072153568268
aF0.6013502478599548
aF0.4072555899620056
aF0.4527471363544464
aF0.28023290634155273
aF0.3265382945537567
aF0.5211538672447205
aF0.3246837258338928
aF0.37383538484573364
aF0.43656304478645325
aF0.3013160526752472
aF0.49132275581359863
aF0.3498370945453644
aF0.31103837490081787
aF0.3337954580783844
aF0.4557209014892578
aF0.35405460000038147
aF0.4537949860095978
aF0.4023898243904114
aF0.44665661454200745
aF0.4788781404495239
aF0.2004214972257614
aF0.3836551904678345
aF0.36146080493927
aF0.347248375415802
aF0.3380138576030731
aF0.3950819969177246
aF0.3774731755256653
aF0.4059273898601532
aF0.4273711144924164
aF0.42741015553474426
aF0.2997438907623291
aF0.3923604190349579
aF0.3131133019924164
aF0.33244186639785767
aF0.34976860880851746
aF0.349496066570282
aF0.42176252603530884
aF0.3064049482345581
aF0.27234533429145813
aF0.34860822558403015
aF0.35381531715393066
aF0.4219435155391693
aF0.36869627237319946
aF0.39591673016548157
aF0.5123677253723145
aF0.339959979057312
aF0.2973422706127167
aF0.29444101452827454
aF0.4242275357246399
aF0.3796119689941406
aF0.4589383602142334
aF0.4065314829349518
aF0.3455637991428375
aF0.424030065536499
aF0.41786348819732666
aF0.3887326121330261
aF0.34435391426086426
aF0.5964975953102112
aF0.312582790851593
aF0.32689422369003296
aF0.46513888239860535
aF0.43672072887420654
aF0.13831692934036255
aF0.3286416828632355
aF0.33042827248573303
aF0.4087966978549957
aF0.35107192397117615
aF0.4093499779701233
aF0.3559693396091461
aF0.3576139807701111
aF0.4175037443637848
aF0.2874801754951477
aF0.3218100070953369
aF0.31266650557518005
aF0.2630879282951355
aF0.27789998054504395
aF0.32680007815361023
aF0.3516801595687866
aF0.2587008476257324
aF0.34986934065818787
aF0.38411569595336914
aF0.35940247774124146
aF0.44191914796829224
aF0.2839857339859009
aF0.3081645667552948
aF0.4041249454021454
aF0.45858174562454224
aF0.45703014731407166
aF0.3097062408924103
aF0.3259611427783966
aF0.44433292746543884
aF0.328828901052475
aF0.40071848034858704
aF0.3987285792827606
aF0.3771967887878418
aF0.32711175084114075
aF0.4145808219909668
aF0.41927453875541687
aF0.4360860586166382
aF0.3877042233943939
aF0.2824898958206177
aF0.464786171913147
aF0.33024564385414124
aF0.41870835423469543
aF0.43156352639198303
aF0.3591974973678589
aF0.4564098119735718
aF0.3391018509864807
aF0.3162963092327118
aF0.3000890612602234
aF0.4270518720149994
aF0.2930260896682739
aF0.5123745203018188
aF0.36701762676239014
aF0.3367844223976135
aF0.31510472297668457
aF0.34488511085510254
aF0.4842463731765747
aF0.4777500629425049
aF0.3518509864807129
aF0.36397790908813477
aF0.3584466576576233
aF0.3267470598220825
aF0.26233938336372375
aF0.336783230304718
aF0.2990768253803253
aF0.3765239417552948
aF0.41596025228500366
aF0.38587087392807007
aF0.31537505984306335
aF0.48011747002601624
aF0.4304681420326233
aF0.31954342126846313
aF0.2657727301120758
aF0.3906606435775757
aF0.3578108847141266
aF0.377579927444458
aF0.367298424243927
aF0.3329974114894867
aF0.3888280391693115
aF0.4222247898578644
aF0.37348100543022156
aF0.2942994236946106
aF0.3146314322948456
aF0.3833458125591278
aF0.3714444637298584
aF0.44086459279060364
aF0.3781631886959076
aF0.29105839133262634
aF0.3753375709056854
aF0.4910372495651245
aF0.3390806317329407
aF0.2530905604362488
aF0.3318236768245697
aF0.3741146922111511
aF0.41213205456733704
aF0.3211060166358948
aF0.37126630544662476
aF0.2685970067977905
aF0.34652549028396606
aF0.4412519931793213
aF0.3698735535144806
aF0.3618086576461792
aF0.32379162311553955
aF0.3676781952381134
aF0.4701657295227051
aF0.2509872615337372
aF0.27391037344932556
aF0.37591636180877686
aF0.43466320633888245
aF0.3299252390861511
aF0.3169706165790558
aF0.40659022331237793
aF0.4140928089618683
aF0.5020832419395447
aF0.3038783073425293
aF0.470989465713501
aF0.43988147377967834
aF0.42943668365478516
aF0.34899184107780457
aF0.3910028040409088
aF0.3533845841884613
aF0.3061006963253021
aF0.3478813171386719
aF0.21294136345386505
aF0.3252709209918976
aF0.3923688530921936
aF0.37055397033691406
aF0.47220444679260254
aF0.3507257401943207
aF0.4305136501789093
aF0.37444084882736206
aF0.37744322419166565
aF0.41197869181632996
aF0.3767699897289276
aF0.257814884185791
aF0.38178718090057373
aF0.31940314173698425
aF0.3881317377090454
aF0.356936514377594
aF0.35261932015419006
aF0.33217015862464905
aF0.3336164951324463
aF0.42832833528518677
aF0.38557669520378113
aF0.38572272658348083
aF0.3597327470779419
aF0.43551042675971985
aF0.44629982113838196
aF0.5086917281150818
aF0.35777005553245544
aF0.4256224036216736
aF0.43144702911376953
aF0.3721168339252472
aF0.36787092685699463
aF0.3030838370323181
aF0.4595120847225189
aF0.464274525642395
aF0.3575800657272339
aF0.4649983048439026
aF0.2754213809967041
aF0.3498539328575134
aF0.3106178343296051
aF0.430143803358078
aF0.333808034658432
aF0.34690549969673157
aF0.349496066570282
aF0.3772672712802887
aF0.36648035049438477
aF0.378223180770874
aF0.3698633015155792
aF0.4524598717689514
aF0.30469563603401184
aF0.28638386726379395
aF0.3710860311985016
aF0.23242126405239105
aF0.3382035791873932
aF0.448788583278656
aF0.39465656876564026
aF0.3252623975276947
aF0.3650815188884735
aF0.3751957416534424
aF0.4186437726020813
aF0.347971647977829
aF0.42666953802108765
aF0.44456878304481506
aF0.349666029214859
aF0.33390530943870544
aF0.28855422139167786
aF0.4914917051792145
aF0.4005138874053955
aF0.35187962651252747
aF0.37975335121154785
aF0.3798058032989502
aF0.3938497304916382
aF0.4041200280189514
aF0.37679624557495117
aF0.3667658269405365
aF0.28997814655303955
aF0.4612242579460144
aF0.354119211435318
aF0.35024294257164
aF0.3844386339187622
aF0.2743722200393677
aF0.43836724758148193
aF0.3830830454826355
aF0.39832255244255066
aF0.37255844473838806
aF0.37988200783729553
aF0.34628140926361084
aF0.41091716289520264
aF0.35267624258995056
aF0.3779626190662384
aF0.403395414352417
aF0.41366830468177795
aF0.3818803131580353
aF0.40116211771965027
aF0.2170543372631073
aF0.4118081331253052
aF0.4982602596282959
aF0.4395228326320648
aF0.34495270252227783
aF0.2956138253211975
aF0.3987835645675659
aF0.3453742563724518
aF0.40693363547325134
aF0.3806406557559967
aF0.42344388365745544
aF0.42953893542289734
aF0.35169777274131775
aF0.22187726199626923
aF0.39873653650283813
aF0.2823208272457123
aF0.44368892908096313
aF0.4536353349685669
aF0.381805956363678
aF0.47350379824638367
aF0.32334041595458984
aF0.31489723920822144
aF0.49211952090263367
aF0.37934941053390503
aF0.4491795003414154
aF0.4051269590854645
aF0.391579806804657
aF0.41525399684906006
aF0.3684404194355011
aF0.39991825819015503
aF0.4566754400730133
aF0.6032490730285645
aF0.44609904289245605
aF0.32756516337394714
aF0.37274369597435
aF0.37816545367240906
aF0.422018438577652
aF0.3565167486667633
aF0.3597945272922516
aF0.3225264549255371
aF0.3174513876438141
aF0.2750098705291748
aF0.328298956155777
aF0.3914449214935303
aF0.3852404057979584
aF0.3293863534927368
aF0.47113481163978577
aF0.3722684383392334
aF0.3459387421607971
aF0.1899840384721756
aF0.334943562746048
aF0.28097668290138245
aF0.3642137944698334
aF0.47036120295524597
aF0.3877872824668884
aF0.47138917446136475
aF0.3446992039680481
aF0.5201252102851868
aF0.451407253742218
aF0.37758761644363403
aF0.35327932238578796
aF0.3013494312763214
aF0.3807246685028076
aF0.1984080821275711
aF0.398118793964386
aF0.34204307198524475
aF0.4754664897918701
aF0.4085046947002411
aF0.3312278091907501
aF0.34240514039993286
aF0.32560470700263977
aF0.3476390540599823
aF0.34960708022117615
aF0.45798224210739136
aF0.4033215641975403
aF0.2773172855377197
aF0.3685857951641083
aF0.30624255537986755
aF0.2844114899635315
aF0.31349435448646545
aF0.35341721773147583
aF0.4332037568092346
aF0.3917352855205536
aF0.36132916808128357
aF0.3820004165172577
aF0.17298373579978943
aF0.3321346044540405
aF0.4454475939273834
aF0.4430646300315857
aF0.36720287799835205
aF0.35521000623703003
aF0.4191683828830719
aF0.3660650849342346
aF0.32239314913749695
aF0.45466065406799316
aF0.3818680942058563
aF0.3588121831417084
aF0.2869187295436859
aF0.41110217571258545
aF0.4003308415412903
aF0.38041815161705017
aF0.5140398740768433
aF0.4360906481742859
aF0.400829553604126
aF0.24005672335624695
aF0.33225682377815247
aF0.4061563313007355
aF0.42985156178474426
aF0.26802846789360046
aF0.30080875754356384
aF0.4056733548641205
aF0.3089216947555542
aF0.43469810485839844
aF0.4264167845249176
aF0.2035342901945114
aF0.3910486102104187
aF0.34987515211105347
aF0.3766075074672699
aF0.5009122490882874
aF0.40116211771965027
aF0.3704198896884918
aF0.40070679783821106
aF0.3227154314517975
aF0.43961185216903687
aF0.35163021087646484
aF0.3372282385826111
aF0.37787920236587524
aF0.38795581459999084
aF0.35006004571914673
aF0.2949698567390442
aF0.3740478456020355
aF0.37182164192199707
aF0.3461892008781433
aF0.4646771252155304
aF0.35527169704437256
aF0.37545743584632874
aF0.16235807538032532
aF0.3820188343524933
aF0.4364921450614929
aF0.40002334117889404
aF0.45628514885902405
aF0.19963021576404572
aF0.30966195464134216
aF0.2835673391819
aF0.42610254883766174
aF0.3053489327430725
aF0.3624178469181061
aF0.3436937630176544
aF0.347971647977829
aF0.3853906989097595
aF0.3962031900882721
aF0.29333627223968506
aF0.4337870180606842
aF0.3259706199169159
aF0.3644160032272339
aF0.4456586539745331
aF0.3177270293235779
aF0.3244628310203552
aF0.3095994293689728
aF0.48524704575538635
aF0.38421180844306946
aF0.3755340278148651
aF0.43443071842193604
aF0.476723849773407
aF0.36822283267974854
aF0.45768946409225464
aF0.41842204332351685
aF0.35971537232398987
aF0.41626742482185364
aF0.3312099874019623
aF0.41482028365135193
aF0.4787551164627075
aF0.3120153248310089
aF0.3874646723270416
aF0.19120369851589203
aF0.2941139042377472
aF0.3781733512878418
aF0.42815056443214417
aF0.16077777743339539
aF0.3732518255710602
aF0.3926348388195038
aF0.4657914936542511
aF0.45930159091949463
aF0.4040506184101105
aF0.367197722196579
aF0.3010919988155365
aF0.39753156900405884
aF0.31147098541259766
aF0.3736514151096344
aF0.2867341935634613
aF0.38995489478111267
aF0.3905344009399414
aF0.4108649790287018
aF0.3318045735359192
aF0.4305383861064911
aF0.413393497467041
aF0.3932217061519623
aF0.3445902168750763
aF0.3538017272949219
aF0.4133559763431549
aF0.4473859369754791
aF0.4763428866863251
aF0.4047013819217682
aF0.38838037848472595
aF0.3824678659439087
aF0.45578664541244507
aF0.35589268803596497
aF0.340957909822464
aF0.3414207994937897
aF0.38658010959625244
aF0.4464178681373596
aF0.33384788036346436
aF0.32497912645339966
aF0.3015357255935669
aF0.2207505702972412
aF0.3222830593585968
aF0.3944151997566223
aF0.25265634059906006
aF0.441048264503479
aF0.4278501272201538
aF0.24708229303359985
aF0.28565865755081177
aF0.36853113770484924
aF0.3121808171272278
aF0.30272939801216125
aF0.391528844833374
aF0.37523019313812256
aF0.4105510711669922
aF0.32106122374534607
aF0.3617011606693268
aF0.30399271845817566
aF0.2061905711889267
aF0.3524157404899597
aF0.36728155612945557
aF0.27353402972221375
aF0.39971819519996643
aF0.28300079703330994
aF0.35493820905685425
aF0.32377880811691284
aF0.3943306505680084
aF0.3570917546749115
aF0.3863585889339447
aF0.37600457668304443
aF0.3561308681964874
aF0.4464222490787506
aF0.3818627595901489
aF0.3763290047645569
aF0.3401848375797272
aF0.30293241143226624
aF0.3937833607196808
aF0.41816309094429016
aF0.42688316106796265
aF0.3675236105918884
aF0.3617011606693268
aF0.2802770733833313
aF0.36961328983306885
aF0.4424552321434021
aF0.45639681816101074
aF0.4372439384460449
aF0.37263303995132446
aF0.26619791984558105
aF0.3145480751991272
aF0.35882875323295593
aF0.31150439381599426
aF0.3607581853866577
aF0.33784911036491394
aF0.4597354233264923
aF0.35704299807548523
aF0.3747588098049164
aF0.36695799231529236
aF0.42776167392730713
aF0.3791801929473877
aF0.3024594783782959
aF0.2997550070285797
aF0.40008559823036194
aF0.4914917051792145
aF0.4269866645336151
aF0.41594138741493225
atp2
.